
AVRASM ver. 2.1.17  D:\documents\elektronika\eurobot_2014\Zad_8_AktuatorskaVeliki\code\AktuatorskaVeliki2014_8.0\List\AktuatorskaVeliki2014.asm Sun Jun 01 00:11:34 2014

D:\documents\elektronika\eurobot_2014\Zad_8_AktuatorskaVeliki\code\AktuatorskaVeliki2014_8.0\List\AktuatorskaVeliki2014.asm(1028): warning: Register r4 already defined by the .DEF directive
D:\documents\elektronika\eurobot_2014\Zad_8_AktuatorskaVeliki\code\AktuatorskaVeliki2014_8.0\List\AktuatorskaVeliki2014.asm(1029): warning: Register r6 already defined by the .DEF directive
D:\documents\elektronika\eurobot_2014\Zad_8_AktuatorskaVeliki\code\AktuatorskaVeliki2014_8.0\List\AktuatorskaVeliki2014.asm(1030): warning: Register r8 already defined by the .DEF directive
D:\documents\elektronika\eurobot_2014\Zad_8_AktuatorskaVeliki\code\AktuatorskaVeliki2014_8.0\List\AktuatorskaVeliki2014.asm(1031): warning: Register r10 already defined by the .DEF directive
D:\documents\elektronika\eurobot_2014\Zad_8_AktuatorskaVeliki\code\AktuatorskaVeliki2014_8.0\List\AktuatorskaVeliki2014.asm(1032): warning: Register r12 already defined by the .DEF directive
                 
                 
                 ;CodeVisionAVR C Compiler V2.03.4 Standard
                 ;(C) Copyright 1998-2008 Pavel Haiduc, HP InfoTech s.r.l.
                 ;http://www.hpinfotech.com
                 
                 ;Chip type              : ATmega128
                 ;Program type           : Application
                 ;Clock frequency        : 11.059000 MHz
                 ;Memory model           : Small
                 ;Optimize for           : Size
                 ;(s)printf features     : int, width
                 ;(s)scanf features      : int, width
                 ;External RAM size      : 0
                 ;Data Stack size        : 1024 byte(s)
                 ;Heap size              : 0 byte(s)
                 ;Promote char to int    : Yes
                 ;char is unsigned       : Yes
                 ;global const stored in FLASH  : No
                 ;8 bit enums            : Yes
                 ;Enhanced core instructions    : On
                 ;Smart register allocation : On
                 ;Automatic register allocation : On
                 
                 	#pragma AVRPART ADMIN PART_NAME ATmega128
                 	#pragma AVRPART MEMORY PROG_FLASH 131072
                 	#pragma AVRPART MEMORY EEPROM 4096
                 	#pragma AVRPART MEMORY INT_SRAM SIZE 4096
                 	#pragma AVRPART MEMORY INT_SRAM START_ADDR 0x100
                 
                 	.LISTMAC
                 	.EQU UDRE=0x5
                 	.EQU RXC=0x7
                 	.EQU USR=0xB
                 	.EQU UDR=0xC
                 	.EQU SPSR=0xE
                 	.EQU SPDR=0xF
                 	.EQU EERE=0x0
                 	.EQU EEWE=0x1
                 	.EQU EEMWE=0x2
                 	.EQU EECR=0x1C
                 	.EQU EEDR=0x1D
                 	.EQU EEARL=0x1E
                 	.EQU EEARH=0x1F
                 	.EQU WDTCR=0x21
                 	.EQU MCUCR=0x35
                 	.EQU RAMPZ=0x3B
                 	.EQU SPL=0x3D
                 	.EQU SPH=0x3E
                 	.EQU SREG=0x3F
                 	.EQU XMCRA=0x6D
                 	.EQU XMCRB=0x6C
                 
                 	.DEF R0X0=R0
                 	.DEF R0X1=R1
                 	.DEF R0X2=R2
                 	.DEF R0X3=R3
                 	.DEF R0X4=R4
                 	.DEF R0X5=R5
                 	.DEF R0X6=R6
                 	.DEF R0X7=R7
                 	.DEF R0X8=R8
                 	.DEF R0X9=R9
                 	.DEF R0XA=R10
                 	.DEF R0XB=R11
                 	.DEF R0XC=R12
                 	.DEF R0XD=R13
                 	.DEF R0XE=R14
                 	.DEF R0XF=R15
                 	.DEF R0X10=R16
                 	.DEF R0X11=R17
                 	.DEF R0X12=R18
                 	.DEF R0X13=R19
                 	.DEF R0X14=R20
                 	.DEF R0X15=R21
                 	.DEF R0X16=R22
                 	.DEF R0X17=R23
                 	.DEF R0X18=R24
                 	.DEF R0X19=R25
                 	.DEF R0X1A=R26
                 	.DEF R0X1B=R27
                 	.DEF R0X1C=R28
                 	.DEF R0X1D=R29
                 	.DEF R0X1E=R30
                 	.DEF R0X1F=R31
                 
                 	.MACRO __CPD1N
                 	CPI  R30,LOW(@0)
                 	LDI  R26,HIGH(@0)
                 	CPC  R31,R26
                 	LDI  R26,BYTE3(@0)
                 	CPC  R22,R26
                 	LDI  R26,BYTE4(@0)
                 	CPC  R23,R26
                 	.ENDM
                 
                 	.MACRO __CPD2N
                 	CPI  R26,LOW(@0)
                 	LDI  R30,HIGH(@0)
                 	CPC  R27,R30
                 	LDI  R30,BYTE3(@0)
                 	CPC  R24,R30
                 	LDI  R30,BYTE4(@0)
                 	CPC  R25,R30
                 	.ENDM
                 
                 	.MACRO __CPWRR
                 	CP   R@0,R@2
                 	CPC  R@1,R@3
                 	.ENDM
                 
                 	.MACRO __CPWRN
                 	CPI  R@0,LOW(@2)
                 	LDI  R30,HIGH(@2)
                 	CPC  R@1,R30
                 	.ENDM
                 
                 	.MACRO __ADDB1MN
                 	SUBI R30,LOW(-@0-(@1))
                 	.ENDM
                 
                 	.MACRO __ADDB2MN
                 	SUBI R26,LOW(-@0-(@1))
                 	.ENDM
                 
                 	.MACRO __ADDW1MN
                 	SUBI R30,LOW(-@0-(@1))
                 	SBCI R31,HIGH(-@0-(@1))
                 	.ENDM
                 
                 	.MACRO __ADDW2MN
                 	SUBI R26,LOW(-@0-(@1))
                 	SBCI R27,HIGH(-@0-(@1))
                 	.ENDM
                 
                 	.MACRO __ADDW1FN
                 	SUBI R30,LOW(-2*@0-(@1))
                 	SBCI R31,HIGH(-2*@0-(@1))
                 	.ENDM
                 
                 	.MACRO __ADDD1FN
                 	SUBI R30,LOW(-2*@0-(@1))
                 	SBCI R31,HIGH(-2*@0-(@1))
                 	SBCI R22,BYTE3(-2*@0-(@1))
                 	.ENDM
                 
                 	.MACRO __ADDD1N
                 	SUBI R30,LOW(-@0)
                 	SBCI R31,HIGH(-@0)
                 	SBCI R22,BYTE3(-@0)
                 	SBCI R23,BYTE4(-@0)
                 	.ENDM
                 
                 	.MACRO __ADDD2N
                 	SUBI R26,LOW(-@0)
                 	SBCI R27,HIGH(-@0)
                 	SBCI R24,BYTE3(-@0)
                 	SBCI R25,BYTE4(-@0)
                 	.ENDM
                 
                 	.MACRO __SUBD1N
                 	SUBI R30,LOW(@0)
                 	SBCI R31,HIGH(@0)
                 	SBCI R22,BYTE3(@0)
                 	SBCI R23,BYTE4(@0)
                 	.ENDM
                 
                 	.MACRO __SUBD2N
                 	SUBI R26,LOW(@0)
                 	SBCI R27,HIGH(@0)
                 	SBCI R24,BYTE3(@0)
                 	SBCI R25,BYTE4(@0)
                 	.ENDM
                 
                 	.MACRO __ANDBMNN
                 	LDS  R30,@0+@1
                 	ANDI R30,LOW(@2)
                 	STS  @0+@1,R30
                 	.ENDM
                 
                 	.MACRO __ANDWMNN
                 	LDS  R30,@0+@1
                 	ANDI R30,LOW(@2)
                 	STS  @0+@1,R30
                 	LDS  R30,@0+@1+1
                 	ANDI R30,HIGH(@2)
                 	STS  @0+@1+1,R30
                 	.ENDM
                 
                 	.MACRO __ANDD1N
                 	ANDI R30,LOW(@0)
                 	ANDI R31,HIGH(@0)
                 	ANDI R22,BYTE3(@0)
                 	ANDI R23,BYTE4(@0)
                 	.ENDM
                 
                 	.MACRO __ANDD2N
                 	ANDI R26,LOW(@0)
                 	ANDI R27,HIGH(@0)
                 	ANDI R24,BYTE3(@0)
                 	ANDI R25,BYTE4(@0)
                 	.ENDM
                 
                 	.MACRO __ORBMNN
                 	LDS  R30,@0+@1
                 	ORI  R30,LOW(@2)
                 	STS  @0+@1,R30
                 	.ENDM
                 
                 	.MACRO __ORWMNN
                 	LDS  R30,@0+@1
                 	ORI  R30,LOW(@2)
                 	STS  @0+@1,R30
                 	LDS  R30,@0+@1+1
                 	ORI  R30,HIGH(@2)
                 	STS  @0+@1+1,R30
                 	.ENDM
                 
                 	.MACRO __ORD1N
                 	ORI  R30,LOW(@0)
                 	ORI  R31,HIGH(@0)
                 	ORI  R22,BYTE3(@0)
                 	ORI  R23,BYTE4(@0)
                 	.ENDM
                 
                 	.MACRO __ORD2N
                 	ORI  R26,LOW(@0)
                 	ORI  R27,HIGH(@0)
                 	ORI  R24,BYTE3(@0)
                 	ORI  R25,BYTE4(@0)
                 	.ENDM
                 
                 	.MACRO __DELAY_USB
                 	LDI  R24,LOW(@0)
                 __DELAY_USB_LOOP:
                 	DEC  R24
                 	BRNE __DELAY_USB_LOOP
                 	.ENDM
                 
                 	.MACRO __DELAY_USW
                 	LDI  R24,LOW(@0)
                 	LDI  R25,HIGH(@0)
                 __DELAY_USW_LOOP:
                 	SBIW R24,1
                 	BRNE __DELAY_USW_LOOP
                 	.ENDM
                 
                 	.MACRO __CLRD1S
                 	LDI  R30,0
                 	STD  Y+@0,R30
                 	STD  Y+@0+1,R30
                 	STD  Y+@0+2,R30
                 	STD  Y+@0+3,R30
                 	.ENDM
                 
                 	.MACRO __GETD1S
                 	LDD  R30,Y+@0
                 	LDD  R31,Y+@0+1
                 	LDD  R22,Y+@0+2
                 	LDD  R23,Y+@0+3
                 	.ENDM
                 
                 	.MACRO __PUTD1S
                 	STD  Y+@0,R30
                 	STD  Y+@0+1,R31
                 	STD  Y+@0+2,R22
                 	STD  Y+@0+3,R23
                 	.ENDM
                 
                 	.MACRO __PUTD2S
                 	STD  Y+@0,R26
                 	STD  Y+@0+1,R27
                 	STD  Y+@0+2,R24
                 	STD  Y+@0+3,R25
                 	.ENDM
                 
                 	.MACRO __POINTB1MN
                 	LDI  R30,LOW(@0+@1)
                 	.ENDM
                 
                 	.MACRO __POINTW1MN
                 	LDI  R30,LOW(@0+@1)
                 	LDI  R31,HIGH(@0+@1)
                 	.ENDM
                 
                 	.MACRO __POINTD1M
                 	LDI  R30,LOW(@0)
                 	LDI  R31,HIGH(@0)
                 	LDI  R22,BYTE3(@0)
                 	LDI  R23,BYTE4(@0)
                 	.ENDM
                 
                 	.MACRO __POINTW1FN
                 	LDI  R30,LOW(2*@0+@1)
                 	LDI  R31,HIGH(2*@0+@1)
                 	.ENDM
                 
                 	.MACRO __POINTD1FN
                 	LDI  R30,LOW(2*@0+@1)
                 	LDI  R31,HIGH(2*@0+@1)
                 	LDI  R22,BYTE3(2*@0+@1)
                 	LDI  R23,BYTE4(2*@0+@1)
                 	.ENDM
                 
                 	.MACRO __POINTB2MN
                 	LDI  R26,LOW(@0+@1)
                 	.ENDM
                 
                 	.MACRO __POINTW2MN
                 	LDI  R26,LOW(@0+@1)
                 	LDI  R27,HIGH(@0+@1)
                 	.ENDM
                 
                 	.MACRO __POINTBRM
                 	LDI  R@0,LOW(@1)
                 	.ENDM
                 
                 	.MACRO __POINTWRM
                 	LDI  R@0,LOW(@2)
                 	LDI  R@1,HIGH(@2)
                 	.ENDM
                 
                 	.MACRO __POINTBRMN
                 	LDI  R@0,LOW(@1+@2)
                 	.ENDM
                 
                 	.MACRO __POINTWRMN
                 	LDI  R@0,LOW(@2+@3)
                 	LDI  R@1,HIGH(@2+@3)
                 	.ENDM
                 
                 	.MACRO __POINTWRFN
                 	LDI  R@0,LOW(@2*2+@3)
                 	LDI  R@1,HIGH(@2*2+@3)
                 	.ENDM
                 
                 	.MACRO __GETD1N
                 	LDI  R30,LOW(@0)
                 	LDI  R31,HIGH(@0)
                 	LDI  R22,BYTE3(@0)
                 	LDI  R23,BYTE4(@0)
                 	.ENDM
                 
                 	.MACRO __GETD2N
                 	LDI  R26,LOW(@0)
                 	LDI  R27,HIGH(@0)
                 	LDI  R24,BYTE3(@0)
                 	LDI  R25,BYTE4(@0)
                 	.ENDM
                 
                 	.MACRO __GETD2S
                 	LDD  R26,Y+@0
                 	LDD  R27,Y+@0+1
                 	LDD  R24,Y+@0+2
                 	LDD  R25,Y+@0+3
                 	.ENDM
                 
                 	.MACRO __GETB1MN
                 	LDS  R30,@0+@1
                 	.ENDM
                 
                 	.MACRO __GETB1HMN
                 	LDS  R31,@0+@1
                 	.ENDM
                 
                 	.MACRO __GETW1MN
                 	LDS  R30,@0+@1
                 	LDS  R31,@0+@1+1
                 	.ENDM
                 
                 	.MACRO __GETD1MN
                 	LDS  R30,@0+@1
                 	LDS  R31,@0+@1+1
                 	LDS  R22,@0+@1+2
                 	LDS  R23,@0+@1+3
                 	.ENDM
                 
                 	.MACRO __GETBRMN
                 	LDS  R@0,@1+@2
                 	.ENDM
                 
                 	.MACRO __GETWRMN
                 	LDS  R@0,@2+@3
                 	LDS  R@1,@2+@3+1
                 	.ENDM
                 
                 	.MACRO __GETWRZ
                 	LDD  R@0,Z+@2
                 	LDD  R@1,Z+@2+1
                 	.ENDM
                 
                 	.MACRO __GETD2Z
                 	LDD  R26,Z+@0
                 	LDD  R27,Z+@0+1
                 	LDD  R24,Z+@0+2
                 	LDD  R25,Z+@0+3
                 	.ENDM
                 
                 	.MACRO __GETB2MN
                 	LDS  R26,@0+@1
                 	.ENDM
                 
                 	.MACRO __GETW2MN
                 	LDS  R26,@0+@1
                 	LDS  R27,@0+@1+1
                 	.ENDM
                 
                 	.MACRO __GETD2MN
                 	LDS  R26,@0+@1
                 	LDS  R27,@0+@1+1
                 	LDS  R24,@0+@1+2
                 	LDS  R25,@0+@1+3
                 	.ENDM
                 
                 	.MACRO __PUTB1MN
                 	STS  @0+@1,R30
                 	.ENDM
                 
                 	.MACRO __PUTW1MN
                 	STS  @0+@1,R30
                 	STS  @0+@1+1,R31
                 	.ENDM
                 
                 	.MACRO __PUTD1MN
                 	STS  @0+@1,R30
                 	STS  @0+@1+1,R31
                 	STS  @0+@1+2,R22
                 	STS  @0+@1+3,R23
                 	.ENDM
                 
                 	.MACRO __PUTB1EN
                 	LDI  R26,LOW(@0+@1)
                 	LDI  R27,HIGH(@0+@1)
                 	CALL __EEPROMWRB
                 	.ENDM
                 
                 	.MACRO __PUTW1EN
                 	LDI  R26,LOW(@0+@1)
                 	LDI  R27,HIGH(@0+@1)
                 	CALL __EEPROMWRW
                 	.ENDM
                 
                 	.MACRO __PUTD1EN
                 	LDI  R26,LOW(@0+@1)
                 	LDI  R27,HIGH(@0+@1)
                 	CALL __EEPROMWRD
                 	.ENDM
                 
                 	.MACRO __PUTBR0MN
                 	STS  @0+@1,R0
                 	.ENDM
                 
                 	.MACRO __PUTDZ2
                 	STD  Z+@0,R26
                 	STD  Z+@0+1,R27
                 	STD  Z+@0+2,R24
                 	STD  Z+@0+3,R25
                 	.ENDM
                 
                 	.MACRO __PUTBMRN
                 	STS  @0+@1,R@2
                 	.ENDM
                 
                 	.MACRO __PUTWMRN
                 	STS  @0+@1,R@2
                 	STS  @0+@1+1,R@3
                 	.ENDM
                 
                 	.MACRO __PUTBZR
                 	STD  Z+@1,R@0
                 	.ENDM
                 
                 	.MACRO __PUTWZR
                 	STD  Z+@2,R@0
                 	STD  Z+@2+1,R@1
                 	.ENDM
                 
                 	.MACRO __GETW1R
                 	MOV  R30,R@0
                 	MOV  R31,R@1
                 	.ENDM
                 
                 	.MACRO __GETW2R
                 	MOV  R26,R@0
                 	MOV  R27,R@1
                 	.ENDM
                 
                 	.MACRO __GETWRN
                 	LDI  R@0,LOW(@2)
                 	LDI  R@1,HIGH(@2)
                 	.ENDM
                 
                 	.MACRO __PUTW1R
                 	MOV  R@0,R30
                 	MOV  R@1,R31
                 	.ENDM
                 
                 	.MACRO __PUTW2R
                 	MOV  R@0,R26
                 	MOV  R@1,R27
                 	.ENDM
                 
                 	.MACRO __ADDWRN
                 	SUBI R@0,LOW(-@2)
                 	SBCI R@1,HIGH(-@2)
                 	.ENDM
                 
                 	.MACRO __ADDWRR
                 	ADD  R@0,R@2
                 	ADC  R@1,R@3
                 	.ENDM
                 
                 	.MACRO __SUBWRN
                 	SUBI R@0,LOW(@2)
                 	SBCI R@1,HIGH(@2)
                 	.ENDM
                 
                 	.MACRO __SUBWRR
                 	SUB  R@0,R@2
                 	SBC  R@1,R@3
                 	.ENDM
                 
                 	.MACRO __ANDWRN
                 	ANDI R@0,LOW(@2)
                 	ANDI R@1,HIGH(@2)
                 	.ENDM
                 
                 	.MACRO __ANDWRR
                 	AND  R@0,R@2
                 	AND  R@1,R@3
                 	.ENDM
                 
                 	.MACRO __ORWRN
                 	ORI  R@0,LOW(@2)
                 	ORI  R@1,HIGH(@2)
                 	.ENDM
                 
                 	.MACRO __ORWRR
                 	OR   R@0,R@2
                 	OR   R@1,R@3
                 	.ENDM
                 
                 	.MACRO __EORWRR
                 	EOR  R@0,R@2
                 	EOR  R@1,R@3
                 	.ENDM
                 
                 	.MACRO __GETWRS
                 	LDD  R@0,Y+@2
                 	LDD  R@1,Y+@2+1
                 	.ENDM
                 
                 	.MACRO __PUTWSR
                 	STD  Y+@2,R@0
                 	STD  Y+@2+1,R@1
                 	.ENDM
                 
                 	.MACRO __MOVEWRR
                 	MOV  R@0,R@2
                 	MOV  R@1,R@3
                 	.ENDM
                 
                 	.MACRO __INWR
                 	IN   R@0,@2
                 	IN   R@1,@2+1
                 	.ENDM
                 
                 	.MACRO __OUTWR
                 	OUT  @2+1,R@1
                 	OUT  @2,R@0
                 	.ENDM
                 
                 	.MACRO __CALL1MN
                 	LDS  R30,@0+@1
                 	LDS  R31,@0+@1+1
                 	ICALL
                 	.ENDM
                 
                 	.MACRO __CALL1FN
                 	LDI  R30,LOW(2*@0+@1)
                 	LDI  R31,HIGH(2*@0+@1)
                 	CALL __GETW1PF
                 	ICALL
                 	.ENDM
                 
                 	.MACRO __CALL2EN
                 	LDI  R26,LOW(@0+@1)
                 	LDI  R27,HIGH(@0+@1)
                 	CALL __EEPROMRDW
                 	ICALL
                 	.ENDM
                 
                 	.MACRO __GETW1STACK
                 	IN   R26,SPL
                 	IN   R27,SPH
                 	ADIW R26,@0+1
                 	LD   R30,X+
                 	LD   R31,X
                 	.ENDM
                 
                 	.MACRO __NBST
                 	BST  R@0,@1
                 	IN   R30,SREG
                 	LDI  R31,0x40
                 	EOR  R30,R31
                 	OUT  SREG,R30
                 	.ENDM
                 
                 
                 	.MACRO __PUTB1SN
                 	LDD  R26,Y+@0
                 	LDD  R27,Y+@0+1
                 	SUBI R26,LOW(-@1)
                 	SBCI R27,HIGH(-@1)
                 	ST   X,R30
                 	.ENDM
                 
                 	.MACRO __PUTW1SN
                 	LDD  R26,Y+@0
                 	LDD  R27,Y+@0+1
                 	SUBI R26,LOW(-@1)
                 	SBCI R27,HIGH(-@1)
                 	ST   X+,R30
                 	ST   X,R31
                 	.ENDM
                 
                 	.MACRO __PUTD1SN
                 	LDD  R26,Y+@0
                 	LDD  R27,Y+@0+1
                 	SUBI R26,LOW(-@1)
                 	SBCI R27,HIGH(-@1)
                 	CALL __PUTDP1
                 	.ENDM
                 
                 	.MACRO __PUTB1SNS
                 	LDD  R26,Y+@0
                 	LDD  R27,Y+@0+1
                 	ADIW R26,@1
                 	ST   X,R30
                 	.ENDM
                 
                 	.MACRO __PUTW1SNS
                 	LDD  R26,Y+@0
                 	LDD  R27,Y+@0+1
                 	ADIW R26,@1
                 	ST   X+,R30
                 	ST   X,R31
                 	.ENDM
                 
                 	.MACRO __PUTD1SNS
                 	LDD  R26,Y+@0
                 	LDD  R27,Y+@0+1
                 	ADIW R26,@1
                 	CALL __PUTDP1
                 	.ENDM
                 
                 	.MACRO __PUTB1PMN
                 	LDS  R26,@0
                 	LDS  R27,@0+1
                 	SUBI R26,LOW(-@1)
                 	SBCI R27,HIGH(-@1)
                 	ST   X,R30
                 	.ENDM
                 
                 	.MACRO __PUTW1PMN
                 	LDS  R26,@0
                 	LDS  R27,@0+1
                 	SUBI R26,LOW(-@1)
                 	SBCI R27,HIGH(-@1)
                 	ST   X+,R30
                 	ST   X,R31
                 	.ENDM
                 
                 	.MACRO __PUTD1PMN
                 	LDS  R26,@0
                 	LDS  R27,@0+1
                 	SUBI R26,LOW(-@1)
                 	SBCI R27,HIGH(-@1)
                 	CALL __PUTDP1
                 	.ENDM
                 
                 	.MACRO __PUTB1PMNS
                 	LDS  R26,@0
                 	LDS  R27,@0+1
                 	ADIW R26,@1
                 	ST   X,R30
                 	.ENDM
                 
                 	.MACRO __PUTW1PMNS
                 	LDS  R26,@0
                 	LDS  R27,@0+1
                 	ADIW R26,@1
                 	ST   X+,R30
                 	ST   X,R31
                 	.ENDM
                 
                 	.MACRO __PUTD1PMNS
                 	LDS  R26,@0
                 	LDS  R27,@0+1
                 	ADIW R26,@1
                 	CALL __PUTDP1
                 	.ENDM
                 
                 	.MACRO __PUTB1RN
                 	MOVW R26,R@0
                 	SUBI R26,LOW(-@1)
                 	SBCI R27,HIGH(-@1)
                 	ST   X,R30
                 	.ENDM
                 
                 	.MACRO __PUTW1RN
                 	MOVW R26,R@0
                 	SUBI R26,LOW(-@1)
                 	SBCI R27,HIGH(-@1)
                 	ST   X+,R30
                 	ST   X,R31
                 	.ENDM
                 
                 	.MACRO __PUTD1RN
                 	MOVW R26,R@0
                 	SUBI R26,LOW(-@1)
                 	SBCI R27,HIGH(-@1)
                 	CALL __PUTDP1
                 	.ENDM
                 
                 	.MACRO __PUTB1RNS
                 	MOVW R26,R@0
                 	ADIW R26,@1
                 	ST   X,R30
                 	.ENDM
                 
                 	.MACRO __PUTW1RNS
                 	MOVW R26,R@0
                 	ADIW R26,@1
                 	ST   X+,R30
                 	ST   X,R31
                 	.ENDM
                 
                 	.MACRO __PUTD1RNS
                 	MOVW R26,R@0
                 	ADIW R26,@1
                 	CALL __PUTDP1
                 	.ENDM
                 
                 	.MACRO __PUTB1RON
                 	MOV  R26,R@0
                 	MOV  R27,R@1
                 	SUBI R26,LOW(-@2)
                 	SBCI R27,HIGH(-@2)
                 	ST   X,R30
                 	.ENDM
                 
                 	.MACRO __PUTW1RON
                 	MOV  R26,R@0
                 	MOV  R27,R@1
                 	SUBI R26,LOW(-@2)
                 	SBCI R27,HIGH(-@2)
                 	ST   X+,R30
                 	ST   X,R31
                 	.ENDM
                 
                 	.MACRO __PUTD1RON
                 	MOV  R26,R@0
                 	MOV  R27,R@1
                 	SUBI R26,LOW(-@2)
                 	SBCI R27,HIGH(-@2)
                 	CALL __PUTDP1
                 	.ENDM
                 
                 	.MACRO __PUTB1RONS
                 	MOV  R26,R@0
                 	MOV  R27,R@1
                 	ADIW R26,@2
                 	ST   X,R30
                 	.ENDM
                 
                 	.MACRO __PUTW1RONS
                 	MOV  R26,R@0
                 	MOV  R27,R@1
                 	ADIW R26,@2
                 	ST   X+,R30
                 	ST   X,R31
                 	.ENDM
                 
                 	.MACRO __PUTD1RONS
                 	MOV  R26,R@0
                 	MOV  R27,R@1
                 	ADIW R26,@2
                 	CALL __PUTDP1
                 	.ENDM
                 
                 
                 	.MACRO __GETB1SX
                 	MOVW R30,R28
                 	SUBI R30,LOW(-@0)
                 	SBCI R31,HIGH(-@0)
                 	LD   R30,Z
                 	.ENDM
                 
                 	.MACRO __GETB1HSX
                 	MOVW R30,R28
                 	SUBI R30,LOW(-@0)
                 	SBCI R31,HIGH(-@0)
                 	LD   R31,Z
                 	.ENDM
                 
                 	.MACRO __GETW1SX
                 	MOVW R30,R28
                 	SUBI R30,LOW(-@0)
                 	SBCI R31,HIGH(-@0)
                 	LD   R0,Z+
                 	LD   R31,Z
                 	MOV  R30,R0
                 	.ENDM
                 
                 	.MACRO __GETD1SX
                 	MOVW R30,R28
                 	SUBI R30,LOW(-@0)
                 	SBCI R31,HIGH(-@0)
                 	LD   R0,Z+
                 	LD   R1,Z+
                 	LD   R22,Z+
                 	LD   R23,Z
                 	MOVW R30,R0
                 	.ENDM
                 
                 	.MACRO __GETB2SX
                 	MOVW R26,R28
                 	SUBI R26,LOW(-@0)
                 	SBCI R27,HIGH(-@0)
                 	LD   R26,X
                 	.ENDM
                 
                 	.MACRO __GETW2SX
                 	MOVW R26,R28
                 	SUBI R26,LOW(-@0)
                 	SBCI R27,HIGH(-@0)
                 	LD   R0,X+
                 	LD   R27,X
                 	MOV  R26,R0
                 	.ENDM
                 
                 	.MACRO __GETD2SX
                 	MOVW R26,R28
                 	SUBI R26,LOW(-@0)
                 	SBCI R27,HIGH(-@0)
                 	LD   R0,X+
                 	LD   R1,X+
                 	LD   R24,X+
                 	LD   R25,X
                 	MOVW R26,R0
                 	.ENDM
                 
                 	.MACRO __GETBRSX
                 	MOVW R30,R28
                 	SUBI R30,LOW(-@1)
                 	SBCI R31,HIGH(-@1)
                 	LD   R@0,Z
                 	.ENDM
                 
                 	.MACRO __GETWRSX
                 	MOVW R30,R28
                 	SUBI R30,LOW(-@2)
                 	SBCI R31,HIGH(-@2)
                 	LD   R@0,Z+
                 	LD   R@1,Z
                 	.ENDM
                 
                 	.MACRO __LSLW8SX
                 	MOVW R30,R28
                 	SUBI R30,LOW(-@0)
                 	SBCI R31,HIGH(-@0)
                 	LD   R31,Z
                 	CLR  R30
                 	.ENDM
                 
                 	.MACRO __PUTB1SX
                 	MOVW R26,R28
                 	SUBI R26,LOW(-@0)
                 	SBCI R27,HIGH(-@0)
                 	ST   X,R30
                 	.ENDM
                 
                 	.MACRO __PUTW1SX
                 	MOVW R26,R28
                 	SUBI R26,LOW(-@0)
                 	SBCI R27,HIGH(-@0)
                 	ST   X+,R30
                 	ST   X,R31
                 	.ENDM
                 
                 	.MACRO __PUTD1SX
                 	MOVW R26,R28
                 	SUBI R26,LOW(-@0)
                 	SBCI R27,HIGH(-@0)
                 	ST   X+,R30
                 	ST   X+,R31
                 	ST   X+,R22
                 	ST   X,R23
                 	.ENDM
                 
                 	.MACRO __CLRW1SX
                 	MOVW R30,R28
                 	SUBI R30,LOW(-@0)
                 	SBCI R31,HIGH(-@0)
                 	CLR  R0
                 	ST   Z+,R0
                 	ST   Z,R0
                 	.ENDM
                 
                 	.MACRO __CLRD1SX
                 	MOVW R30,R28
                 	SUBI R30,LOW(-@0)
                 	SBCI R31,HIGH(-@0)
                 	CLR  R0
                 	ST   Z+,R0
                 	ST   Z+,R0
                 	ST   Z+,R0
                 	ST   Z,R0
                 	.ENDM
                 
                 	.MACRO __PUTB2SX
                 	MOVW R30,R28
                 	SUBI R30,LOW(-@0)
                 	SBCI R31,HIGH(-@0)
                 	ST   Z,R26
                 	.ENDM
                 
                 	.MACRO __PUTW2SX
                 	MOVW R30,R28
                 	SUBI R30,LOW(-@0)
                 	SBCI R31,HIGH(-@0)
                 	ST   Z+,R26
                 	ST   Z,R27
                 	.ENDM
                 
                 	.MACRO __PUTD2SX
                 	MOVW R30,R28
                 	SUBI R30,LOW(-@0)
                 	SBCI R31,HIGH(-@0)
                 	ST   Z+,R26
                 	ST   Z+,R27
                 	ST   Z+,R24
                 	ST   Z,R25
                 	.ENDM
                 
                 	.MACRO __PUTBSRX
                 	MOVW R30,R28
                 	SUBI R30,LOW(-@0)
                 	SBCI R31,HIGH(-@0)
                 	ST   Z,R@1
                 	.ENDM
                 
                 	.MACRO __PUTWSRX
                 	MOVW R30,R28
                 	SUBI R30,LOW(-@2)
                 	SBCI R31,HIGH(-@2)
                 	ST   Z+,R@0
                 	ST   Z,R@1
                 	.ENDM
                 
                 	.MACRO __PUTB1SNX
                 	MOVW R26,R28
                 	SUBI R26,LOW(-@0)
                 	SBCI R27,HIGH(-@0)
                 	LD   R0,X+
                 	LD   R27,X
                 	MOV  R26,R0
                 	SUBI R26,LOW(-@1)
                 	SBCI R27,HIGH(-@1)
                 	ST   X,R30
                 	.ENDM
                 
                 	.MACRO __PUTW1SNX
                 	MOVW R26,R28
                 	SUBI R26,LOW(-@0)
                 	SBCI R27,HIGH(-@0)
                 	LD   R0,X+
                 	LD   R27,X
                 	MOV  R26,R0
                 	SUBI R26,LOW(-@1)
                 	SBCI R27,HIGH(-@1)
                 	ST   X+,R30
                 	ST   X,R31
                 	.ENDM
                 
                 	.MACRO __PUTD1SNX
                 	MOVW R26,R28
                 	SUBI R26,LOW(-@0)
                 	SBCI R27,HIGH(-@0)
                 	LD   R0,X+
                 	LD   R27,X
                 	MOV  R26,R0
                 	SUBI R26,LOW(-@1)
                 	SBCI R27,HIGH(-@1)
                 	ST   X+,R30
                 	ST   X+,R31
                 	ST   X+,R22
                 	ST   X,R23
                 	.ENDM
                 
                 	.MACRO __MULBRR
                 	MULS R@0,R@1
                 	MOVW R30,R0
                 	.ENDM
                 
                 	.MACRO __MULBRRU
                 	MUL  R@0,R@1
                 	MOVW R30,R0
                 	.ENDM
                 
                 	.MACRO __MULBRR0
                 	MULS R@0,R@1
                 	.ENDM
                 
                 	.MACRO __MULBRRU0
                 	MUL  R@0,R@1
                 	.ENDM
                 
                 	.MACRO __MULBNWRU
                 	LDI  R26,@2
                 	MUL  R26,R@0
                 	MOVW R30,R0
                 	MUL  R26,R@1
                 	ADD  R31,R0
                 	.ENDM
                 
                 ;NAME DEFINITIONS FOR GLOBAL VARIABLES ALLOCATED TO REGISTERS
                 	.DEF _modbus_state=R4
                 	.DEF _i=R6
                 	.DEF _k=R8
                 	.DEF _crlf=R10
                 	.DEF _broadcast=R12
                 
                 	.CSEG
                 	.ORG 0x00
                 
                 ;INTERRUPT VECTORS
000000 940c 005b 	JMP  __RESET
000002 940c 0000 	JMP  0x00
000004 940c 0000 	JMP  0x00
000006 940c 0000 	JMP  0x00
000008 940c 0000 	JMP  0x00
00000a 940c 0000 	JMP  0x00
00000c 940c 0000 	JMP  0x00
00000e 940c 0000 	JMP  0x00
000010 940c 0000 	JMP  0x00
000012 940c 0000 	JMP  0x00
000014 940c 0000 	JMP  0x00
000016 940c 0000 	JMP  0x00
000018 940c 0000 	JMP  0x00
00001a 940c 0000 	JMP  0x00
00001c 940c 0000 	JMP  0x00
00001e 940c 0000 	JMP  0x00
000020 940c 0000 	JMP  0x00
000022 940c 0000 	JMP  0x00
000024 940c 0701 	JMP  _usart0_rx_isr
000026 940c 0000 	JMP  0x00
000028 940c 0000 	JMP  0x00
00002a 940c 0000 	JMP  0x00
00002c 940c 0000 	JMP  0x00
00002e 940c 0000 	JMP  0x00
000030 940c 0000 	JMP  0x00
000032 940c 0000 	JMP  0x00
000034 940c 0000 	JMP  0x00
000036 940c 0000 	JMP  0x00
000038 940c 0000 	JMP  0x00
00003a 940c 0000 	JMP  0x00
00003c 940c 0542 	JMP  _usart_rx_isr
00003e 940c 0000 	JMP  0x00
000040 940c 057c 	JMP  _usart_tx_isr
000042 940c 0000 	JMP  0x00
000044 940c 0000 	JMP  0x00
                 
                 _tbl10_G101:
000046 2710
000047 03e8
000048 0064
000049 000a      	.DB  0x10,0x27,0xE8,0x3,0x64,0x0,0xA,0x0
00004a 0001      	.DB  0x1,0x0
                 _tbl16_G101:
00004b 1000
00004c 0100
00004d 0010
00004e 0001      	.DB  0x0,0x10,0x0,0x1,0x10,0x0,0x1,0x0
                 
                 _0xA2:
00004f 0000      	.DB  0x0,0x0
                 _0x200005F:
D:\documents\elektronika\eurobot_2014\Zad_8_AktuatorskaVeliki\code\AktuatorskaVeliki2014_8.0\List\AktuatorskaVeliki2014.asm(1083): warning: .cseg .db misalignment - padding zero byte
000050 0001      	.DB  0x1
                 _0x2000000:
000051 4e2d
000052 4e41
D:\documents\elektronika\eurobot_2014\Zad_8_AktuatorskaVeliki\code\AktuatorskaVeliki2014_8.0\List\AktuatorskaVeliki2014.asm(1085): warning: .cseg .db misalignment - padding zero byte
000053 0000      	.DB  0x2D,0x4E,0x41,0x4E,0x0
                 
                 __GLOBAL_INI_TBL:
000054 0002      	.DW  0x02
000055 0004      	.DW  0x04
000056 009e      	.DW  _0xA2*2
                 
000057 0001      	.DW  0x01
000058 0667      	.DW  __seed_G100
000059 00a0      	.DW  _0x200005F*2
                 
                 _0xFFFFFFFF:
00005a 0000      	.DW  0
                 
                 __RESET:
00005b 94f8      	CLI
00005c 27ee      	CLR  R30
00005d bbec      	OUT  EECR,R30
                 
                 ;INTERRUPT VECTORS ARE PLACED
                 ;AT THE START OF FLASH
00005e e0f1      	LDI  R31,1
00005f bff5      	OUT  MCUCR,R31
000060 bfe5      	OUT  MCUCR,R30
000061 93e0 006c 	STS  XMCRB,R30
                 
                 ;DISABLE WATCHDOG
000063 e1f8      	LDI  R31,0x18
000064 bdf1      	OUT  WDTCR,R31
000065 bde1      	OUT  WDTCR,R30
                 
                 ;CLEAR R2-R14
000066 e08d      	LDI  R24,(14-2)+1
000067 e0a2      	LDI  R26,2
000068 27bb      	CLR  R27
                 __CLEAR_REG:
000069 93ed      	ST   X+,R30
00006a 958a      	DEC  R24
00006b f7e9      	BRNE __CLEAR_REG
                 
                 ;CLEAR SRAM
00006c e080      	LDI  R24,LOW(0x1000)
00006d e190      	LDI  R25,HIGH(0x1000)
00006e e0a0      	LDI  R26,LOW(0x100)
00006f e0b1      	LDI  R27,HIGH(0x100)
                 __CLEAR_SRAM:
000070 93ed      	ST   X+,R30
000071 9701      	SBIW R24,1
000072 f7e9      	BRNE __CLEAR_SRAM
                 
                 ;GLOBAL VARIABLES INITIALIZATION
000073 eae8      	LDI  R30,LOW(__GLOBAL_INI_TBL*2)
000074 e0f0      	LDI  R31,HIGH(__GLOBAL_INI_TBL*2)
                 __GLOBAL_INI_NEXT:
000075 9185      	LPM  R24,Z+
000076 9195      	LPM  R25,Z+
000077 9700      	SBIW R24,0
000078 f061      	BREQ __GLOBAL_INI_END
000079 91a5      	LPM  R26,Z+
00007a 91b5      	LPM  R27,Z+
00007b 9005      	LPM  R0,Z+
00007c 9015      	LPM  R1,Z+
00007d 01bf      	MOVW R22,R30
00007e 01f0      	MOVW R30,R0
                 __GLOBAL_INI_LOOP:
00007f 9005      	LPM  R0,Z+
000080 920d      	ST   X+,R0
000081 9701      	SBIW R24,1
000082 f7e1      	BRNE __GLOBAL_INI_LOOP
000083 01fb      	MOVW R30,R22
000084 cff0      	RJMP __GLOBAL_INI_NEXT
                 __GLOBAL_INI_END:
                 
                 ;STACK POINTER INITIALIZATION
000085 efef      	LDI  R30,LOW(0x10FF)
000086 bfed      	OUT  SPL,R30
000087 e1e0      	LDI  R30,HIGH(0x10FF)
000088 bfee      	OUT  SPH,R30
                 
                 ;DATA STACK POINTER INITIALIZATION
000089 e0c0      	LDI  R28,LOW(0x500)
00008a e0d5      	LDI  R29,HIGH(0x500)
                 
00008b 940c 0778 	JMP  _main
                 
                 	.ESEG
                 	.ORG 0
                 
                 	.DSEG
                 	.ORG 0x500
                 
                 	.CSEG
                 ;#include "modbus_slave.h"
                 ;#include "modbus_port.h"
                 ;
                 ;static char slave_address;
                 ;
                 ;#if (MODBUS_USE_COILS == 1)
                 ;static char coils_array[MODBUS_NUM_COILS];
                 ;#endif
                 ;#if (MODBUS_USE_REGISTERS == 1)
                 ;static short registers_array[MODBUS_NUM_REGISTERS];
                 ;#endif
                 ;
                 ;#if (MODBUS_USE_EVENTS == 1)
                 ;#ifndef MODBUS_NUM_EVENTS
                 ;#define MODBUS_NUM_EVENTS 32
                 ;#endif
                 ;#define MODBUS_EVENT_COIL 0x00
                 ;#define MODBUS_EVENT_REGISTER 0x01
                 ;static unsigned char events_array[MODBUS_NUM_EVENTS];
                 ;static unsigned char events_num;
                 ;static unsigned char events_head;
                 ;static unsigned char events_tail;
                 ;#if (MODBUS_USE_COILS == 1)
                 ;static void (*CoilsEventFunctions[MODBUS_NUM_COILS])(unsigned int);
                 ;#endif
                 ;#if (MODBUS_USE_REGISTERS == 1)
                 ;static void (*RegistersEventFunctions[MODBUS_NUM_REGISTERS])(unsigned int);
                 ;#endif
                 ;#endif
                 ;
                 ;int modbus_state = 0;  // 0 - idle, 1 - addr, 2 - function, 3 - data & execution
                 ;char asciiPart[4];
                 ;int i;
                 ;int k;
                 ;int crlf;
                 ;int broadcast;
                 ;unsigned char function;
                 ;unsigned char data[80];
                 ;unsigned char byte[40];
                 ;unsigned char LRC;
                 ;
                 ;#if (MODBUS_USE_COILS == 1)
                 ;int ModbusSetCoil(unsigned short CoilID, char value)
                 ; 0000 002C {
                 
                 	.CSEG
                 _ModbusSetCoil:
                 ; 0000 002D     if(CoilID >= MODBUS_NUM_COILS)
                 ;	CoilID -> Y+1
                 ;	value -> Y+0
00008d 81a9      	LDD  R26,Y+1
00008e 81ba      	LDD  R27,Y+1+1
00008f 971c      	SBIW R26,12
000090 f018      	BRLO _0x3
                 ; 0000 002E     {
                 ; 0000 002F         return -1;
000091 efef      	LDI  R30,LOW(65535)
000092 efff      	LDI  R31,HIGH(65535)
000093 c02e      	RJMP _0x20A000A
                 ; 0000 0030     }
                 ; 0000 0031 
                 ; 0000 0032     coils_array[CoilID] = value;
                 _0x3:
000094 940e 08bd 	CALL SUBOPT_0x0
                 ; 0000 0033 
                 ; 0000 0034     return 1;
000096 c029      	RJMP _0x20A000B
                 ; 0000 0035 }
                 ;
                 ;int ModbusSetCoilPrivate(unsigned short CoilID, char value)
                 ; 0000 0038 {
                 _ModbusSetCoilPrivate:
                 ; 0000 0039     if(CoilID >= MODBUS_NUM_COILS)
                 ;	CoilID -> Y+1
                 ;	value -> Y+0
000097 81a9      	LDD  R26,Y+1
000098 81ba      	LDD  R27,Y+1+1
000099 971c      	SBIW R26,12
00009a f018      	BRLO _0x4
                 ; 0000 003A     {
                 ; 0000 003B         return -1;
00009b efef      	LDI  R30,LOW(65535)
00009c efff      	LDI  R31,HIGH(65535)
00009d c024      	RJMP _0x20A000A
                 ; 0000 003C     }
                 ; 0000 003D 
                 ; 0000 003E     coils_array[CoilID] = value;
                 _0x4:
00009e 940e 08bd 	CALL SUBOPT_0x0
                 ; 0000 003F     #if (MODBUS_USE_EVENTS == 1)
                 ; 0000 0040     if(CoilID < 64 && CoilsEventFunctions[CoilID] != 0)
0000a0 81a9      	LDD  R26,Y+1
0000a1 81ba      	LDD  R27,Y+1+1
0000a2 34a0      	CPI  R26,LOW(0x40)
0000a3 e0e0      	LDI  R30,HIGH(0x40)
0000a4 07be      	CPC  R27,R30
0000a5 f450      	BRSH _0x6
0000a6 81e9      	LDD  R30,Y+1
0000a7 81fa      	LDD  R31,Y+1+1
0000a8 940e 08c4 	CALL SUBOPT_0x1
0000aa 0fae      	ADD  R26,R30
0000ab 1fbf      	ADC  R27,R31
0000ac 940e 0aa5 	CALL __GETW1P
0000ae 9730      	SBIW R30,0
0000af f409      	BRNE _0x7
                 _0x6:
0000b0 c00f      	RJMP _0x5
                 _0x7:
                 ; 0000 0041     {
                 ; 0000 0042         events_array[events_head] = (MODBUS_EVENT_COIL<<6) | CoilID;
0000b1 940e 08c9 	CALL SUBOPT_0x2
0000b3 81e9      	LDD  R30,Y+1
0000b4 81fa      	LDD  R31,Y+1+1
0000b5 940e 08cf 	CALL SUBOPT_0x3
                 ; 0000 0043         if(++events_head == MODBUS_NUM_EVENTS) events_head = 0;
0000b7 f419      	BRNE _0x8
0000b8 e0e0      	LDI  R30,LOW(0)
0000b9 93e0 051c 	STS  _events_head_G000,R30
                 ; 0000 0044         events_num++;
                 _0x8:
0000bb 91e0 051b 	LDS  R30,_events_num_G000
0000bd 5fef      	SUBI R30,-LOW(1)
0000be 93e0 051b 	STS  _events_num_G000,R30
                 ; 0000 0045         // possible overflow
                 ; 0000 0046     }
                 ; 0000 0047     #endif
                 ; 0000 0048 
                 ; 0000 0049     return 1;
                 _0x5:
                 _0x20A000B:
0000c0 e0e1      	LDI  R30,LOW(1)
0000c1 e0f0      	LDI  R31,HIGH(1)
                 _0x20A000A:
0000c2 9623      	ADIW R28,3
0000c3 9508      	RET
                 ; 0000 004A }
                 ;
                 ;int ModbusGetCoil(unsigned short CoilID, char *value)
                 ; 0000 004D {
                 ; 0000 004E     if(CoilID >= MODBUS_NUM_COILS)
                 ;	CoilID -> Y+2
                 ;	*value -> Y+0
                 ; 0000 004F     {
                 ; 0000 0050         return -1;
                 ; 0000 0051     }
                 ; 0000 0052 
                 ; 0000 0053     if(value == 0)
                 ; 0000 0054     {
                 ; 0000 0055         return -2;
                 ; 0000 0056     }
                 ; 0000 0057 
                 ; 0000 0058     *value = coils_array[CoilID];
                 ; 0000 0059 
                 ; 0000 005A     return 1;
                 ; 0000 005B }
                 ;
                 ;int ModbusGetMultipleCoils(unsigned short CoilAddr, unsigned int count, unsigned char *data)
                 ; 0000 005E {
                 _ModbusGetMultipleCoils:
                 ; 0000 005F     int i;
                 ; 0000 0060 
                 ; 0000 0061     if(CoilAddr + count > MODBUS_NUM_COILS || count == 0)
0000c4 931a      	ST   -Y,R17
0000c5 930a      	ST   -Y,R16
                 ;	CoilAddr -> Y+6
                 ;	count -> Y+4
                 ;	*data -> Y+2
                 ;	i -> R16,R17
0000c6 81ec      	LDD  R30,Y+4
0000c7 81fd      	LDD  R31,Y+4+1
0000c8 940e 08d7 	CALL SUBOPT_0x4
0000ca 971d      	SBIW R26,13
0000cb f420      	BRSH _0xC
0000cc 81ac      	LDD  R26,Y+4
0000cd 81bd      	LDD  R27,Y+4+1
0000ce 9710      	SBIW R26,0
0000cf f419      	BRNE _0xB
                 _0xC:
                 ; 0000 0062     {
                 ; 0000 0063         return -1;
0000d0 efef      	LDI  R30,LOW(65535)
0000d1 efff      	LDI  R31,HIGH(65535)
0000d2 c194      	RJMP _0x20A0007
                 ; 0000 0064     }
                 ; 0000 0065 
                 ; 0000 0066     if(data == 0)
                 _0xB:
0000d3 81ea      	LDD  R30,Y+2
0000d4 81fb      	LDD  R31,Y+2+1
0000d5 9730      	SBIW R30,0
0000d6 f419      	BRNE _0xE
                 ; 0000 0067     {
                 ; 0000 0068         return -2;
0000d7 efee      	LDI  R30,LOW(65534)
0000d8 efff      	LDI  R31,HIGH(65534)
0000d9 c18d      	RJMP _0x20A0007
                 ; 0000 0069     }
                 ; 0000 006A 
                 ; 0000 006B     for(i = 0; i < ((count-1)>>3)+1; i++)
                 _0xE:
                +
0000da e000     +LDI R16 , LOW ( 0 )
0000db e010     +LDI R17 , HIGH ( 0 )
                 	__GETWRN 16,17,0
                 _0x10:
0000dc 940e 08dc 	CALL SUBOPT_0x5
0000de 170e      	CP   R16,R30
0000df 071f      	CPC  R17,R31
0000e0 f450      	BRSH _0x11
                 ; 0000 006C     {
                 ; 0000 006D         data[i] = 0;
0000e1 01f8      	MOVW R30,R16
0000e2 81aa      	LDD  R26,Y+2
0000e3 81bb      	LDD  R27,Y+2+1
0000e4 0fae      	ADD  R26,R30
0000e5 1fbf      	ADC  R27,R31
0000e6 e0e0      	LDI  R30,LOW(0)
0000e7 93ec      	ST   X,R30
                 ; 0000 006E     }
                +
0000e8 5f0f     +SUBI R16 , LOW ( - 1 )
0000e9 4f1f     +SBCI R17 , HIGH ( - 1 )
                 	__ADDWRN 16,17,1
0000ea cff1      	RJMP _0x10
                 _0x11:
                 ; 0000 006F     for(i = 0; i < count; i++)
                +
0000eb e000     +LDI R16 , LOW ( 0 )
0000ec e010     +LDI R17 , HIGH ( 0 )
                 	__GETWRN 16,17,0
                 _0x13:
0000ed 81ec      	LDD  R30,Y+4
0000ee 81fd      	LDD  R31,Y+4+1
0000ef 170e      	CP   R16,R30
0000f0 071f      	CPC  R17,R31
0000f1 f528      	BRSH _0x14
                 ; 0000 0070     {
                 ; 0000 0071         if(coils_array[CoilAddr+i])
0000f2 01f8      	MOVW R30,R16
0000f3 81ae      	LDD  R26,Y+6
0000f4 81bf      	LDD  R27,Y+6+1
0000f5 0fea      	ADD  R30,R26
0000f6 1ffb      	ADC  R31,R27
0000f7 5fef      	SUBI R30,LOW(-_coils_array_G000)
0000f8 4ffa      	SBCI R31,HIGH(-_coils_array_G000)
0000f9 81e0      	LD   R30,Z
0000fa 30e0      	CPI  R30,0
0000fb f059      	BREQ _0x15
                 ; 0000 0072         {
                 ; 0000 0073             data[i>>3] |= 1<<(i%8);
0000fc 940e 08e4 	CALL SUBOPT_0x6
0000fe 93ff      	PUSH R31
0000ff 93ef      	PUSH R30
000100 940e 08ec 	CALL SUBOPT_0x7
000102 2be6      	OR   R30,R22
000103 2bf7      	OR   R31,R23
000104 91af      	POP  R26
000105 91bf      	POP  R27
000106 c00c      	RJMP _0x9F
                 ; 0000 0074         }
                 ; 0000 0075         else
                 _0x15:
                 ; 0000 0076         {
                 ; 0000 0077             data[i>>3] &= ~(1<<(i%8));
000107 940e 08e4 	CALL SUBOPT_0x6
000109 93ff      	PUSH R31
00010a 93ef      	PUSH R30
00010b 940e 08ec 	CALL SUBOPT_0x7
00010d 95e0      	COM  R30
00010e 95f0      	COM  R31
00010f 23e6      	AND  R30,R22
000110 23f7      	AND  R31,R23
000111 91af      	POP  R26
000112 91bf      	POP  R27
                 _0x9F:
000113 93ec      	ST   X,R30
                 ; 0000 0078         }
                 ; 0000 0079     }
                +
000114 5f0f     +SUBI R16 , LOW ( - 1 )
000115 4f1f     +SBCI R17 , HIGH ( - 1 )
                 	__ADDWRN 16,17,1
000116 cfd6      	RJMP _0x13
                 _0x14:
                 ; 0000 007A 
                 ; 0000 007B     return ((count-1)>>3)+1;
000117 940e 08dc 	CALL SUBOPT_0x5
000119 c14d      	RJMP _0x20A0007
                 ; 0000 007C }
                 ;
                 ;#if (MODBUS_USE_EVENTS == 1)
                 ;int ModbusSetCoilChangeEvent(unsigned int CoilAddr, void (*CoilEventFunc)(unsigned int))
                 ; 0000 0080 {
                 _ModbusSetCoilChangeEvent:
                 ; 0000 0081     if(CoilAddr < 64)
                 ;	CoilAddr -> Y+2
                 ;	*CoilEventFunc -> Y+0
00011a 940e 08f8 	CALL SUBOPT_0x8
00011c f440      	BRSH _0x17
                 ; 0000 0082     {
                 ; 0000 0083         CoilsEventFunctions[CoilAddr] = CoilEventFunc;
00011d 81ea      	LDD  R30,Y+2
00011e 81fb      	LDD  R31,Y+2+1
00011f 940e 08c4 	CALL SUBOPT_0x1
000121 940e 08fe 	CALL SUBOPT_0x9
                 ; 0000 0084         return 1;
000123 940c 05cb 	JMP  _0x20A0005
                 ; 0000 0085     }
                 ; 0000 0086     return 0;
                 _0x17:
000125 e0e0      	LDI  R30,LOW(0)
000126 e0f0      	LDI  R31,HIGH(0)
000127 940c 05cb 	JMP  _0x20A0005
                 ; 0000 0087 }
                 ;#endif
                 ;#endif
                 ;
                 ;#if (MODBUS_USE_REGISTERS == 1)
                 ;int ModbusSetRegister(unsigned short RegisterID, short value)
                 ; 0000 008D {
                 _ModbusSetRegister:
                 ; 0000 008E     if(RegisterID >= MODBUS_NUM_REGISTERS)
                 ;	RegisterID -> Y+2
                 ;	value -> Y+0
000129 81aa      	LDD  R26,Y+2
00012a 81bb      	LDD  R27,Y+2+1
00012b 9714      	SBIW R26,4
00012c f020      	BRLO _0x18
                 ; 0000 008F     {
                 ; 0000 0090         return -1;
00012d efef      	LDI  R30,LOW(65535)
00012e efff      	LDI  R31,HIGH(65535)
00012f 940c 05cb 	JMP  _0x20A0005
                 ; 0000 0091     }
                 ; 0000 0092 
                 ; 0000 0093     registers_array[RegisterID] = value;
                 _0x18:
000131 940e 0907 	CALL SUBOPT_0xA
000133 940e 08fe 	CALL SUBOPT_0x9
                 ; 0000 0094 
                 ; 0000 0095     return 1;
000135 940c 05cb 	JMP  _0x20A0005
                 ; 0000 0096 }
                 ;
                 ;int ModbusSetRegisterPrivate(unsigned short RegisterID, short value)
                 ; 0000 0099 {
                 _ModbusSetRegisterPrivate:
                 ; 0000 009A     if(RegisterID >= MODBUS_NUM_REGISTERS)
                 ;	RegisterID -> Y+2
                 ;	value -> Y+0
000137 81aa      	LDD  R26,Y+2
000138 81bb      	LDD  R27,Y+2+1
000139 9714      	SBIW R26,4
00013a f020      	BRLO _0x19
                 ; 0000 009B     {
                 ; 0000 009C         return -1;
00013b efef      	LDI  R30,LOW(65535)
00013c efff      	LDI  R31,HIGH(65535)
00013d 940c 05cb 	JMP  _0x20A0005
                 ; 0000 009D     }
                 ; 0000 009E 
                 ; 0000 009F     registers_array[RegisterID] = value;
                 _0x19:
00013f 940e 0907 	CALL SUBOPT_0xA
000141 0fea      	ADD  R30,R26
000142 1ffb      	ADC  R31,R27
000143 81a8      	LD   R26,Y
000144 81b9      	LDD  R27,Y+1
000145 83a0      	STD  Z+0,R26
000146 83b1      	STD  Z+1,R27
                 ; 0000 00A0     #if (MODBUS_USE_EVENTS == 1)
                 ; 0000 00A1     if(RegisterID < 64 && RegistersEventFunctions[RegisterID] != 0)
000147 940e 08f8 	CALL SUBOPT_0x8
000149 f430      	BRSH _0x1B
00014a 940e 090e 	CALL SUBOPT_0xB
00014c 940e 0915 	CALL SUBOPT_0xC
00014e 9730      	SBIW R30,0
00014f f409      	BRNE _0x1C
                 _0x1B:
000150 c010      	RJMP _0x1A
                 _0x1C:
                 ; 0000 00A2     {
                 ; 0000 00A3         events_array[events_head] = (MODBUS_EVENT_REGISTER<<6) | RegisterID;
000151 940e 08c9 	CALL SUBOPT_0x2
000153 81ea      	LDD  R30,Y+2
000154 81fb      	LDD  R31,Y+2+1
000155 64e0      	ORI  R30,0x40
000156 940e 08cf 	CALL SUBOPT_0x3
                 ; 0000 00A4         if(++events_head == MODBUS_NUM_EVENTS) events_head = 0;
000158 f419      	BRNE _0x1D
000159 e0e0      	LDI  R30,LOW(0)
00015a 93e0 051c 	STS  _events_head_G000,R30
                 ; 0000 00A5         events_num++;
                 _0x1D:
00015c 91e0 051b 	LDS  R30,_events_num_G000
00015e 5fef      	SUBI R30,-LOW(1)
00015f 93e0 051b 	STS  _events_num_G000,R30
                 ; 0000 00A6         // possible overflow
                 ; 0000 00A7     }
                 ; 0000 00A8     #endif
                 ; 0000 00A9     return 1;
                 _0x1A:
000161 e0e1      	LDI  R30,LOW(1)
000162 e0f0      	LDI  R31,HIGH(1)
000163 940c 05cb 	JMP  _0x20A0005
                 ; 0000 00AA }
                 ;
                 ;int ModbusGetRegister(unsigned short RegisterID, short *value)
                 ; 0000 00AD {
                 _ModbusGetRegister:
                 ; 0000 00AE     if(RegisterID >= MODBUS_NUM_REGISTERS)
                 ;	RegisterID -> Y+2
                 ;	*value -> Y+0
000165 81aa      	LDD  R26,Y+2
000166 81bb      	LDD  R27,Y+2+1
000167 9714      	SBIW R26,4
000168 f020      	BRLO _0x1E
                 ; 0000 00AF     {
                 ; 0000 00B0         return -1;
000169 efef      	LDI  R30,LOW(65535)
00016a efff      	LDI  R31,HIGH(65535)
00016b 940c 05cb 	JMP  _0x20A0005
                 ; 0000 00B1     }
                 ; 0000 00B2 
                 ; 0000 00B3     *value = registers_array[RegisterID];
                 _0x1E:
00016d 940e 0907 	CALL SUBOPT_0xA
00016f 940e 0915 	CALL SUBOPT_0xC
000171 81a8      	LD   R26,Y
000172 81b9      	LDD  R27,Y+1
000173 93ed      	ST   X+,R30
000174 93fc      	ST   X,R31
                 ; 0000 00B4 
                 ; 0000 00B5     return 1;
000175 e0e1      	LDI  R30,LOW(1)
000176 e0f0      	LDI  R31,HIGH(1)
000177 940c 05cb 	JMP  _0x20A0005
                 ; 0000 00B6 }
                 ;
                 ;int ModbusGetMultipleRegisters(unsigned short RegAddr, unsigned int count, unsigned short *value)
                 ; 0000 00B9 {
                 ; 0000 00BA     int i;
                 ; 0000 00BB     if(RegAddr + count > MODBUS_NUM_REGISTERS || count == 0)
                 ;	RegAddr -> Y+6
                 ;	count -> Y+4
                 ;	*value -> Y+2
                 ;	i -> R16,R17
                 ; 0000 00BC     {
                 ; 0000 00BD         return -1;
                 ; 0000 00BE     }
                 ; 0000 00BF 
                 ; 0000 00C0     for(i = 0; i < count; i++)
                 ; 0000 00C1     {
                 ; 0000 00C2 	    value[i] = registers_array[RegAddr+i];
                 ; 0000 00C3     }
                 ; 0000 00C4 
                 ; 0000 00C5     return i;
                 ; 0000 00C6 }
                 ;
                 ;int ModbusGetMultipleRegistersBE(unsigned short RegAddr, unsigned int count, unsigned short *value)
                 ; 0000 00C9 {
                 _ModbusGetMultipleRegistersBE:
                 ; 0000 00CA     int i;
                 ; 0000 00CB     unsigned char *pvalue;
                 ; 0000 00CC     pvalue = (unsigned char *)value;
000179 940e 0b8b 	CALL __SAVELOCR4
                 ;	RegAddr -> Y+8
                 ;	count -> Y+6
                 ;	*value -> Y+4
                 ;	i -> R16,R17
                 ;	*pvalue -> R18,R19
                +
00017b 812c     +LDD R18 , Y + 4
00017c 813d     +LDD R19 , Y + 4 + 1
                 	__GETWRS 18,19,4
                 ; 0000 00CD     if(RegAddr + count > MODBUS_NUM_REGISTERS && count == 0)
00017d 81ee      	LDD  R30,Y+6
00017e 81ff      	LDD  R31,Y+6+1
00017f 85a8      	LDD  R26,Y+8
000180 85b9      	LDD  R27,Y+8+1
000181 0fae      	ADD  R26,R30
000182 1fbf      	ADC  R27,R31
000183 9715      	SBIW R26,5
000184 f020      	BRLO _0x26
000185 81ae      	LDD  R26,Y+6
000186 81bf      	LDD  R27,Y+6+1
000187 9710      	SBIW R26,0
000188 f009      	BREQ _0x27
                 _0x26:
000189 c003      	RJMP _0x25
                 _0x27:
                 ; 0000 00CE     {
                 ; 0000 00CF         return -1;
00018a efef      	LDI  R30,LOW(65535)
00018b efff      	LDI  R31,HIGH(65535)
00018c c01d      	RJMP _0x20A0009
                 ; 0000 00D0     }
                 ; 0000 00D1 
                 ; 0000 00D2     for(i = 0; i < count; i++)
                 _0x25:
                +
00018d e000     +LDI R16 , LOW ( 0 )
00018e e010     +LDI R17 , HIGH ( 0 )
                 	__GETWRN 16,17,0
                 _0x29:
00018f 81ee      	LDD  R30,Y+6
000190 81ff      	LDD  R31,Y+6+1
000191 170e      	CP   R16,R30
000192 071f      	CPC  R17,R31
000193 f4a8      	BRSH _0x2A
                 ; 0000 00D3     {
                 ; 0000 00D4 	    pvalue[i*2] = registers_array[RegAddr+i]>>8;
000194 01f8      	MOVW R30,R16
000195 0fee      	LSL  R30
000196 1fff      	ROL  R31
000197 940e 091a 	CALL SUBOPT_0xD
000199 940e 0a7a 	CALL __ASRW8
00019b 01d0      	MOVW R26,R0
00019c 93ec      	ST   X,R30
                 ; 0000 00D5         pvalue[i*2+1] = registers_array[RegAddr+i]&0xFF;
00019d 01f8      	MOVW R30,R16
00019e 0fee      	LSL  R30
00019f 1fff      	ROL  R31
0001a0 9631      	ADIW R30,1
0001a1 940e 091a 	CALL SUBOPT_0xD
0001a3 70f0      	ANDI R31,HIGH(0xFF)
0001a4 01d0      	MOVW R26,R0
0001a5 93ec      	ST   X,R30
                 ; 0000 00D6     }
                +
0001a6 5f0f     +SUBI R16 , LOW ( - 1 )
0001a7 4f1f     +SBCI R17 , HIGH ( - 1 )
                 	__ADDWRN 16,17,1
0001a8 cfe6      	RJMP _0x29
                 _0x2A:
                 ; 0000 00D7 
                 ; 0000 00D8     return i;
0001a9 01f8      	MOVW R30,R16
                 _0x20A0009:
0001aa 940e 0b90 	CALL __LOADLOCR4
0001ac 962a      	ADIW R28,10
0001ad 9508      	RET
                 ; 0000 00D9 }
                 ;
                 ;#if (MODBUS_USE_EVENTS == 1)
                 ;int ModbusSetRegisterChangeEvent(unsigned int RegAddr, void (*RegisterEventFunc)(unsigned int))
                 ; 0000 00DD {
                 _ModbusSetRegisterChangeEvent:
                 ; 0000 00DE     if(RegAddr < 64)
                 ;	RegAddr -> Y+2
                 ;	*RegisterEventFunc -> Y+0
0001ae 940e 08f8 	CALL SUBOPT_0x8
0001b0 f430      	BRSH _0x2B
                 ; 0000 00DF     {
                 ; 0000 00E0         RegistersEventFunctions[RegAddr] = RegisterEventFunc;
0001b1 940e 090e 	CALL SUBOPT_0xB
0001b3 940e 08fe 	CALL SUBOPT_0x9
                 ; 0000 00E1         return 1;
0001b5 940c 05cb 	JMP  _0x20A0005
                 ; 0000 00E2     }
                 ; 0000 00E3     return 0;
                 _0x2B:
0001b7 e0e0      	LDI  R30,LOW(0)
0001b8 e0f0      	LDI  R31,HIGH(0)
0001b9 940c 05cb 	JMP  _0x20A0005
                 ; 0000 00E4 }
                 ;#endif
                 ;#endif
                 ;
                 ;unsigned int ModbusAccumulate(unsigned char *data, unsigned int count)
                 ; 0000 00E9 {
                 _ModbusAccumulate:
                 ; 0000 00EA     int i;
                 ; 0000 00EB     unsigned int accum = 0;
                 ; 0000 00EC     for(i = 0; i < count; i++)
0001bb 940e 0b8b 	CALL __SAVELOCR4
                 ;	*data -> Y+6
                 ;	count -> Y+4
                 ;	i -> R16,R17
                 ;	accum -> R18,R19
                +
0001bd e020     +LDI R18 , LOW ( 0 )
0001be e030     +LDI R19 , HIGH ( 0 )
                 	__GETWRN 18,19,0
                +
0001bf e000     +LDI R16 , LOW ( 0 )
0001c0 e010     +LDI R17 , HIGH ( 0 )
                 	__GETWRN 16,17,0
                 _0x2D:
0001c1 81ec      	LDD  R30,Y+4
0001c2 81fd      	LDD  R31,Y+4+1
0001c3 170e      	CP   R16,R30
0001c4 071f      	CPC  R17,R31
0001c5 f450      	BRSH _0x2E
                 ; 0000 00ED     {
                 ; 0000 00EE         accum += data[i];
0001c6 01f8      	MOVW R30,R16
0001c7 940e 08d7 	CALL SUBOPT_0x4
0001c9 940e 0927 	CALL SUBOPT_0xE
                +
0001cb 0f2e     +ADD R18 , R30
0001cc 1f3f     +ADC R19 , R31
                 	__ADDWRR 18,19,30,31
                 ; 0000 00EF     }
                +
0001cd 5f0f     +SUBI R16 , LOW ( - 1 )
0001ce 4f1f     +SBCI R17 , HIGH ( - 1 )
                 	__ADDWRN 16,17,1
0001cf cff1      	RJMP _0x2D
                 _0x2E:
                 ; 0000 00F0     return accum;
0001d0 01f9      	MOVW R30,R18
0001d1 940e 0b90 	CALL __LOADLOCR4
0001d3 c095      	RJMP _0x20A0008
                 ; 0000 00F1 }
                 ;
                 ;int ModbusByteToASCII(unsigned char Byte, unsigned char *Nibble1, unsigned char *Nibble2)
                 ; 0000 00F4 {
                 _ModbusByteToASCII:
                 ; 0000 00F5     if( (Nibble1 == 0) || (Nibble2 == 0) )
                 ;	Byte -> Y+4
                 ;	*Nibble1 -> Y+2
                 ;	*Nibble2 -> Y+0
0001d4 81aa      	LDD  R26,Y+2
0001d5 81bb      	LDD  R27,Y+2+1
0001d6 9710      	SBIW R26,0
0001d7 f021      	BREQ _0x30
0001d8 81a8      	LD   R26,Y
0001d9 81b9      	LDD  R27,Y+1
0001da 9710      	SBIW R26,0
0001db f419      	BRNE _0x2F
                 _0x30:
                 ; 0000 00F6     {
                 ; 0000 00F7         return -1;
0001dc efef      	LDI  R30,LOW(65535)
0001dd efff      	LDI  R31,HIGH(65535)
0001de c0d2      	RJMP _0x20A0006
                 ; 0000 00F8     }
                 ; 0000 00F9 
                 ; 0000 00FA     *Nibble1 = (Byte >> 4) + 48;
                 _0x2F:
0001df 81ec      	LDD  R30,Y+4
0001e0 e0f0      	LDI  R31,0
0001e1 940e 0a6a 	CALL __ASRW4
0001e3 96f0      	ADIW R30,48
0001e4 81aa      	LDD  R26,Y+2
0001e5 81bb      	LDD  R27,Y+2+1
0001e6 93ec      	ST   X,R30
                 ; 0000 00FB     *Nibble2 = (Byte & 0x0F) + 48;
0001e7 81ec      	LDD  R30,Y+4
0001e8 e0f0      	LDI  R31,0
0001e9 70ef      	ANDI R30,LOW(0xF)
0001ea 70f0      	ANDI R31,HIGH(0xF)
0001eb 96f0      	ADIW R30,48
0001ec 81a8      	LD   R26,Y
0001ed 81b9      	LDD  R27,Y+1
0001ee 93ec      	ST   X,R30
                 ; 0000 00FC 
                 ; 0000 00FD     if(*Nibble1 > 57)
0001ef 81aa      	LDD  R26,Y+2
0001f0 81bb      	LDD  R27,Y+2+1
0001f1 91ac      	LD   R26,X
0001f2 33aa      	CPI  R26,LOW(0x3A)
0001f3 f030      	BRLO _0x32
                 ; 0000 00FE     {
                 ; 0000 00FF         *Nibble1 += 7;
0001f4 81aa      	LDD  R26,Y+2
0001f5 81bb      	LDD  R27,Y+2+1
0001f6 940e 0927 	CALL SUBOPT_0xE
0001f8 9637      	ADIW R30,7
0001f9 93ec      	ST   X,R30
                 ; 0000 0100     }
                 ; 0000 0101     if(*Nibble2 > 57)
                 _0x32:
0001fa 81a8      	LD   R26,Y
0001fb 81b9      	LDD  R27,Y+1
0001fc 91ac      	LD   R26,X
0001fd 33aa      	CPI  R26,LOW(0x3A)
0001fe f030      	BRLO _0x33
                 ; 0000 0102     {
                 ; 0000 0103         *Nibble2 += 7;
0001ff 81a8      	LD   R26,Y
000200 81b9      	LDD  R27,Y+1
000201 940e 0927 	CALL SUBOPT_0xE
000203 9637      	ADIW R30,7
000204 93ec      	ST   X,R30
                 ; 0000 0104     }
                 ; 0000 0105 
                 ; 0000 0106     return 1;
                 _0x33:
000205 e0e1      	LDI  R30,LOW(1)
000206 e0f0      	LDI  R31,HIGH(1)
000207 c0a9      	RJMP _0x20A0006
                 ; 0000 0107 }
                 ;
                 ;int ModbusASCIIToByte(unsigned char *Byte, char Nibble1, char Nibble2)
                 ; 0000 010A {
                 _ModbusASCIIToByte:
                 ; 0000 010B     if( Byte == 0 )
                 ;	*Byte -> Y+2
                 ;	Nibble1 -> Y+1
                 ;	Nibble2 -> Y+0
000208 81ea      	LDD  R30,Y+2
000209 81fb      	LDD  R31,Y+2+1
00020a 9730      	SBIW R30,0
00020b f421      	BRNE _0x34
                 ; 0000 010C     {
                 ; 0000 010D         return -1;
00020c efef      	LDI  R30,LOW(65535)
00020d efff      	LDI  R31,HIGH(65535)
00020e 940c 05cb 	JMP  _0x20A0005
                 ; 0000 010E     }
                 ; 0000 010F 
                 ; 0000 0110     if(Nibble1 > 57)
                 _0x34:
000210 81a9      	LDD  R26,Y+1
000211 33aa      	CPI  R26,LOW(0x3A)
000212 f020      	BRLO _0x35
                 ; 0000 0111     {
                 ; 0000 0112         Nibble1 -= 7;
000213 940e 092a 	CALL SUBOPT_0xF
000215 9737      	SBIW R30,7
000216 83e9      	STD  Y+1,R30
                 ; 0000 0113     }
                 ; 0000 0114     if(Nibble2 > 57)
                 _0x35:
000217 81a8      	LD   R26,Y
000218 33aa      	CPI  R26,LOW(0x3A)
000219 f020      	BRLO _0x36
                 ; 0000 0115     {
                 ; 0000 0116         Nibble2 -= 7;
00021a 940e 092d 	CALL SUBOPT_0x10
00021c 9737      	SBIW R30,7
00021d 83e8      	ST   Y,R30
                 ; 0000 0117     }
                 ; 0000 0118 
                 ; 0000 0119     Nibble1 -= 48;
                 _0x36:
00021e 940e 092a 	CALL SUBOPT_0xF
000220 97f0      	SBIW R30,48
000221 83e9      	STD  Y+1,R30
                 ; 0000 011A     Nibble2 -= 48;
000222 940e 092d 	CALL SUBOPT_0x10
000224 97f0      	SBIW R30,48
000225 83e8      	ST   Y,R30
                 ; 0000 011B 
                 ; 0000 011C     *Byte = (unsigned char)((Nibble1<<4) | Nibble2);
000226 940e 092a 	CALL SUBOPT_0xF
000228 940e 0a61 	CALL __LSLW4
00022a 01df      	MOVW R26,R30
00022b 940e 092d 	CALL SUBOPT_0x10
00022d 2bea      	OR   R30,R26
00022e 2bfb      	OR   R31,R27
00022f e0f0      	LDI  R31,0
000230 81aa      	LDD  R26,Y+2
000231 81bb      	LDD  R27,Y+2+1
000232 93ec      	ST   X,R30
                 ; 0000 011D     return 1;
000233 e0e1      	LDI  R30,LOW(1)
000234 e0f0      	LDI  R31,HIGH(1)
000235 940c 05cb 	JMP  _0x20A0005
                 ; 0000 011E }
                 ;
                 ;int ModbusAsciify(unsigned char *byteMessage, unsigned char *asciiMessage, int byteMessageSize)
                 ; 0000 0121 {
                 _ModbusAsciify:
                 ; 0000 0122     int i;
                 ; 0000 0123 
                 ; 0000 0124     if( (byteMessage == 0) || (asciiMessage == 0) )
000237 931a      	ST   -Y,R17
000238 930a      	ST   -Y,R16
                 ;	*byteMessage -> Y+6
                 ;	*asciiMessage -> Y+4
                 ;	byteMessageSize -> Y+2
                 ;	i -> R16,R17
000239 81ae      	LDD  R26,Y+6
00023a 81bf      	LDD  R27,Y+6+1
00023b 9710      	SBIW R26,0
00023c f021      	BREQ _0x38
00023d 81ac      	LDD  R26,Y+4
00023e 81bd      	LDD  R27,Y+4+1
00023f 9710      	SBIW R26,0
000240 f419      	BRNE _0x37
                 _0x38:
                 ; 0000 0125     {
                 ; 0000 0126         return -1;
000241 efef      	LDI  R30,LOW(65535)
000242 efff      	LDI  R31,HIGH(65535)
000243 c023      	RJMP _0x20A0007
                 ; 0000 0127     }
                 ; 0000 0128 
                 ; 0000 0129     for(i=0; i < byteMessageSize; i++)
                 _0x37:
                +
000244 e000     +LDI R16 , LOW ( 0 )
000245 e010     +LDI R17 , HIGH ( 0 )
                 	__GETWRN 16,17,0
                 _0x3B:
000246 81ea      	LDD  R30,Y+2
000247 81fb      	LDD  R31,Y+2+1
000248 170e      	CP   R16,R30
000249 071f      	CPC  R17,R31
00024a f4c4      	BRGE _0x3C
                 ; 0000 012A     {
                 ; 0000 012B         ModbusByteToASCII(byteMessage[i], &asciiMessage[i*2], &asciiMessage[i*2+1]);
00024b 01f8      	MOVW R30,R16
00024c 940e 08d7 	CALL SUBOPT_0x4
00024e 91ec      	LD   R30,X
00024f 93ea      	ST   -Y,R30
000250 01f8      	MOVW R30,R16
000251 0fee      	LSL  R30
000252 1fff      	ROL  R31
000253 81ad      	LDD  R26,Y+5
000254 81be      	LDD  R27,Y+5+1
000255 940e 0930 	CALL SUBOPT_0x11
000257 01f8      	MOVW R30,R16
000258 0fee      	LSL  R30
000259 1fff      	ROL  R31
00025a 9631      	ADIW R30,1
00025b 81af      	LDD  R26,Y+7
00025c 85b8      	LDD  R27,Y+7+1
00025d 940e 0930 	CALL SUBOPT_0x11
00025f df74      	RCALL _ModbusByteToASCII
                 ; 0000 012C     }
                +
000260 5f0f     +SUBI R16 , LOW ( - 1 )
000261 4f1f     +SBCI R17 , HIGH ( - 1 )
                 	__ADDWRN 16,17,1
000262 cfe3      	RJMP _0x3B
                 _0x3C:
                 ; 0000 012D 
                 ; 0000 012E     return byteMessageSize*2;
000263 81ea      	LDD  R30,Y+2
000264 81fb      	LDD  R31,Y+2+1
000265 0fee      	LSL  R30
000266 1fff      	ROL  R31
                 _0x20A0007:
000267 8119      	LDD  R17,Y+1
000268 8108      	LDD  R16,Y+0
                 _0x20A0008:
000269 9628      	ADIW R28,8
00026a 9508      	RET
                 ; 0000 012F }
                 ;
                 ;void ModbusSlaveInit(unsigned char address, void (*DirPinFunc)(int))
                 ; 0000 0132 {
                 _ModbusSlaveInit:
                 ; 0000 0133     #if (MODBUS_USE_EVENTS == 1)
                 ; 0000 0134     int i;
                 ; 0000 0135 
                 ; 0000 0136     for(i = 0; i < MODBUS_NUM_EVENTS; i++)
00026b 931a      	ST   -Y,R17
00026c 930a      	ST   -Y,R16
                 ;	address -> Y+4
                 ;	*DirPinFunc -> Y+2
                 ;	i -> R16,R17
                +
00026d e000     +LDI R16 , LOW ( 0 )
00026e e010     +LDI R17 , HIGH ( 0 )
                 	__GETWRN 16,17,0
                 _0x3E:
                +
00026f 3006     +CPI R16 , LOW ( 6 )
000270 e0e0     +LDI R30 , HIGH ( 6 )
000271 071e     +CPC R17 , R30
                 	__CPWRN 16,17,6
000272 f44c      	BRGE _0x3F
                 ; 0000 0137     {
                 ; 0000 0138         events_array[i] = 0;
000273 e1a5      	LDI  R26,LOW(_events_array_G000)
000274 e0b5      	LDI  R27,HIGH(_events_array_G000)
000275 0fa0      	ADD  R26,R16
000276 1fb1      	ADC  R27,R17
000277 e0e0      	LDI  R30,LOW(0)
000278 93ec      	ST   X,R30
                 ; 0000 0139     }
                +
000279 5f0f     +SUBI R16 , LOW ( - 1 )
00027a 4f1f     +SBCI R17 , HIGH ( - 1 )
                 	__ADDWRN 16,17,1
00027b cff3      	RJMP _0x3E
                 _0x3F:
                 ; 0000 013A     events_num = 0;
00027c e0e0      	LDI  R30,LOW(0)
00027d 93e0 051b 	STS  _events_num_G000,R30
                 ; 0000 013B     events_head = 0;
00027f 93e0 051c 	STS  _events_head_G000,R30
                 ; 0000 013C     events_tail = 0;
000281 93e0 051d 	STS  _events_tail_G000,R30
                 ; 0000 013D 
                 ; 0000 013E     #if (MODBUS_USE_COILS == 1)
                 ; 0000 013F     for(i = 0; i < MODBUS_NUM_COILS; i++)
                +
000283 e000     +LDI R16 , LOW ( 0 )
000284 e010     +LDI R17 , HIGH ( 0 )
                 	__GETWRN 16,17,0
                 _0x41:
                +
000285 300c     +CPI R16 , LOW ( 12 )
000286 e0e0     +LDI R30 , HIGH ( 12 )
000287 071e     +CPC R17 , R30
                 	__CPWRN 16,17,12
000288 f444      	BRGE _0x42
                 ; 0000 0140     {
                 ; 0000 0141         CoilsEventFunctions[i] = 0;
000289 01f8      	MOVW R30,R16
00028a 940e 08c4 	CALL SUBOPT_0x1
00028c 940e 0935 	CALL SUBOPT_0x12
                 ; 0000 0142     }
                +
00028e 5f0f     +SUBI R16 , LOW ( - 1 )
00028f 4f1f     +SBCI R17 , HIGH ( - 1 )
                 	__ADDWRN 16,17,1
000290 cff4      	RJMP _0x41
                 _0x42:
                 ; 0000 0143     #endif
                 ; 0000 0144     #if (MODBUS_USE_REGISTERS == 1)
                 ; 0000 0145     for(i = 0; i < MODBUS_NUM_REGISTERS; i++)
                +
000291 e000     +LDI R16 , LOW ( 0 )
000292 e010     +LDI R17 , HIGH ( 0 )
                 	__GETWRN 16,17,0
                 _0x44:
                +
000293 3004     +CPI R16 , LOW ( 4 )
000294 e0e0     +LDI R30 , HIGH ( 4 )
000295 071e     +CPC R17 , R30
                 	__CPWRN 16,17,4
000296 f454      	BRGE _0x45
                 ; 0000 0146     {
                 ; 0000 0147         RegistersEventFunctions[i] = 0;
000297 01f8      	MOVW R30,R16
000298 e3a6      	LDI  R26,LOW(_RegistersEventFunctions_G000)
000299 e0b5      	LDI  R27,HIGH(_RegistersEventFunctions_G000)
00029a 0fee      	LSL  R30
00029b 1fff      	ROL  R31
00029c 940e 0935 	CALL SUBOPT_0x12
                 ; 0000 0148     }
                +
00029e 5f0f     +SUBI R16 , LOW ( - 1 )
00029f 4f1f     +SBCI R17 , HIGH ( - 1 )
                 	__ADDWRN 16,17,1
0002a0 cff2      	RJMP _0x44
                 _0x45:
                 ; 0000 0149     #endif
                 ; 0000 014A     #endif
                 ; 0000 014B 
                 ; 0000 014C     slave_address = address;
0002a1 81ec      	LDD  R30,Y+4
0002a2 93e0 0500 	STS  _slave_address_G000,R30
                 ; 0000 014D 	broadcast = 0;
0002a4 24cc      	CLR  R12
0002a5 24dd      	CLR  R13
                 ; 0000 014E 
                 ; 0000 014F     ModbusUartInit(DirPinFunc, MODBUS_USE_INTERRUPT?ModbusSlaveMain:0);
0002a6 81ea      	LDD  R30,Y+2
0002a7 81fb      	LDD  R31,Y+2+1
0002a8 93fa      	ST   -Y,R31
0002a9 93ea      	ST   -Y,R30
0002aa ebe3      	LDI  R30,LOW(_ModbusSlaveMain)
0002ab e0f2      	LDI  R31,HIGH(_ModbusSlaveMain)
0002ac 93fa      	ST   -Y,R31
0002ad 93ea      	ST   -Y,R30
0002ae d301      	RCALL _ModbusUartInit
                 ; 0000 0150 }
0002af 8119      	LDD  R17,Y+1
0002b0 8108      	LDD  R16,Y+0
                 _0x20A0006:
0002b1 9625      	ADIW R28,5
0002b2 9508      	RET
                 ;
                 ;void ModbusSlaveMain()
                 ; 0000 0153 {
                 _ModbusSlaveMain:
                 ; 0000 0154     char recv;
                 ; 0000 0155     unsigned char recvLRC;
                 ; 0000 0156 
                 ; 0000 0157     while(ModbusUartGetChar(&recv))
0002b3 931a      	ST   -Y,R17
0002b4 930a      	ST   -Y,R16
                 ;	recv -> R17
                 ;	recvLRC -> R16
                 _0x46:
0002b5 b7ed      	IN   R30,SPL
0002b6 b7fe      	IN   R31,SPH
0002b7 93fa      	ST   -Y,R31
0002b8 93ea      	ST   -Y,R30
0002b9 931f      	PUSH R17
0002ba d312      	RCALL _ModbusUartGetChar
0002bb 911f      	POP  R17
0002bc 9730      	SBIW R30,0
0002bd f411      	BRNE PC+3
0002be 940c 04ee 	JMP _0x48
                 ; 0000 0158     {
                 ; 0000 0159         switch(modbus_state)
0002c0 01f2      	MOVW R30,R4
                 ; 0000 015A         {
                 ; 0000 015B             case 0:
0002c1 9730      	SBIW R30,0
0002c2 f429      	BRNE _0x4C
                 ; 0000 015C                 if(recv == ':')
0002c3 331a      	CPI  R17,58
0002c4 f411      	BRNE _0x4D
                 ; 0000 015D                 {
                 ; 0000 015E                     modbus_state = 1;
0002c5 940e 093c 	CALL SUBOPT_0x13
                 ; 0000 015F                     i = 0;
                 ; 0000 0160                     LRC = 0;
                 ; 0000 0161                 }
                 ; 0000 0162             	break;
                 _0x4D:
0002c7 c225      	RJMP _0x4B
                 ; 0000 0163 
                 ; 0000 0164             case 1:
                 _0x4C:
0002c8 30e1      	CPI  R30,LOW(0x1)
0002c9 e0a0      	LDI  R26,HIGH(0x1)
0002ca 07fa      	CPC  R31,R26
0002cb f509      	BRNE _0x4E
                 ; 0000 0165                 asciiPart[i++] = recv;
0002cc 940e 0945 	CALL SUBOPT_0x14
                 ; 0000 0166                 if(recv == ':')
0002ce f419      	BRNE _0x4F
                 ; 0000 0167                 {
                 ; 0000 0168                     modbus_state = 1;
0002cf 940e 093c 	CALL SUBOPT_0x13
                 ; 0000 0169                     i = 0;
                 ; 0000 016A                     LRC = 0;
                 ; 0000 016B                 }
                 ; 0000 016C                 else if(i == 2)
0002d1 c01a      	RJMP _0x50
                 _0x4F:
0002d2 e0e2      	LDI  R30,LOW(2)
0002d3 e0f0      	LDI  R31,HIGH(2)
0002d4 15e6      	CP   R30,R6
0002d5 05f7      	CPC  R31,R7
0002d6 f4a9      	BRNE _0x51
                 ; 0000 016D                 {
                 ; 0000 016E                     ModbusASCIIToByte(&byte[0], asciiPart[0], asciiPart[1]);
0002d7 940e 094e 	CALL SUBOPT_0x15
                 ; 0000 016F                     if(slave_address == byte[0])
0002d9 91a0 0500 	LDS  R26,_slave_address_G000
0002db 17ea      	CP   R30,R26
0002dc f419      	BRNE _0x52
                 ; 0000 0170                     {
                 ; 0000 0171                         modbus_state = 2;
0002dd 940e 095d 	CALL SUBOPT_0x16
                 ; 0000 0172                         LRC += byte[0];
                 ; 0000 0173                         i = 0;
                 ; 0000 0174                     }
                 ; 0000 0175 					else if(byte[0] == 0)
0002df c00c      	RJMP _0x53
                 _0x52:
0002e0 91e0 0593 	LDS  R30,_byte
0002e2 30e0      	CPI  R30,0
0002e3 f431      	BRNE _0x54
                 ; 0000 0176                     {
                 ; 0000 0177                         modbus_state = 2;
0002e4 940e 095d 	CALL SUBOPT_0x16
                 ; 0000 0178                         LRC += byte[0];
                 ; 0000 0179                         i = 0;
                 ; 0000 017A                         broadcast = 1;
0002e6 e0e1      	LDI  R30,LOW(1)
0002e7 e0f0      	LDI  R31,HIGH(1)
0002e8 016f      	MOVW R12,R30
                 ; 0000 017B                     }
                 ; 0000 017C                     else
0002e9 c002      	RJMP _0x55
                 _0x54:
                 ; 0000 017D                     {
                 ; 0000 017E                         modbus_state = 0;
0002ea 2444      	CLR  R4
0002eb 2455      	CLR  R5
                 ; 0000 017F                     }
                 _0x55:
                 _0x53:
                 ; 0000 0180                 }
                 ; 0000 0181             	break;
                 _0x51:
                 _0x50:
0002ec c200      	RJMP _0x4B
                 ; 0000 0182 
                 ; 0000 0183             case 2:
                 _0x4E:
0002ed 30e2      	CPI  R30,LOW(0x2)
0002ee e0a0      	LDI  R26,HIGH(0x2)
0002ef 07fa      	CPC  R31,R26
0002f0 f509      	BRNE _0x56
                 ; 0000 0184                 asciiPart[i++] = recv;
0002f1 940e 0945 	CALL SUBOPT_0x14
                 ; 0000 0185                 if(recv == ':')
0002f3 f419      	BRNE _0x57
                 ; 0000 0186                 {
                 ; 0000 0187                     modbus_state = 1;
0002f4 940e 093c 	CALL SUBOPT_0x13
                 ; 0000 0188                     i = 0;
                 ; 0000 0189                     LRC = 0;
                 ; 0000 018A                 }
                 ; 0000 018B                 else if(i == 2)
0002f6 c01a      	RJMP _0x58
                 _0x57:
0002f7 e0e2      	LDI  R30,LOW(2)
0002f8 e0f0      	LDI  R31,HIGH(2)
0002f9 15e6      	CP   R30,R6
0002fa 05f7      	CPC  R31,R7
0002fb f4a9      	BRNE _0x59
                 ; 0000 018C                 {
                 ; 0000 018D                     ModbusASCIIToByte(&byte[0], asciiPart[0], asciiPart[1]);
0002fc 940e 094e 	CALL SUBOPT_0x15
                 ; 0000 018E                     function = byte[0];
0002fe 93e0 0542 	STS  _function,R30
                 ; 0000 018F                     modbus_state = 3;
000300 e0e3      	LDI  R30,LOW(3)
000301 e0f0      	LDI  R31,HIGH(3)
000302 012f      	MOVW R4,R30
                 ; 0000 0190                     LRC += byte[0];
000303 91a0 05bb 	LDS  R26,_LRC
000305 27bb      	CLR  R27
000306 940e 096c 	CALL SUBOPT_0x17
000308 0fea      	ADD  R30,R26
000309 93e0 05bb 	STS  _LRC,R30
                 ; 0000 0191                     i = 0;
00030b 2466      	CLR  R6
00030c 2477      	CLR  R7
                 ; 0000 0192                     crlf = 0;
00030d 24aa      	CLR  R10
00030e 24bb      	CLR  R11
                 ; 0000 0193                     k = 0;
00030f 2488      	CLR  R8
000310 2499      	CLR  R9
                 ; 0000 0194                 }
                 ; 0000 0195             	break;
                 _0x59:
                 _0x58:
000311 c1db      	RJMP _0x4B
                 ; 0000 0196 
                 ; 0000 0197             case 3:
                 _0x56:
000312 30e3      	CPI  R30,LOW(0x3)
000313 e0a0      	LDI  R26,HIGH(0x3)
000314 07fa      	CPC  R31,R26
000315 f011      	BREQ PC+3
000316 940c 04eb 	JMP _0x94
                 ; 0000 0198                 if(recv == '\r')
000318 301d      	CPI  R17,13
000319 f421      	BRNE _0x5B
                 ; 0000 0199                 {
                 ; 0000 019A                     crlf = 1;
00031a e0e1      	LDI  R30,LOW(1)
00031b e0f0      	LDI  R31,HIGH(1)
00031c 015f      	MOVW R10,R30
                 ; 0000 019B                 }
                 ; 0000 019C                 else if(recv == '\n' && crlf == 1)
00031d c04d      	RJMP _0x5C
                 _0x5B:
00031e 301a      	CPI  R17,10
00031f f429      	BRNE _0x5E
000320 e0e1      	LDI  R30,LOW(1)
000321 e0f0      	LDI  R31,HIGH(1)
000322 15ea      	CP   R30,R10
000323 05fb      	CPC  R31,R11
000324 f009      	BREQ _0x5F
                 _0x5E:
000325 c023      	RJMP _0x5D
                 _0x5F:
                 ; 0000 019D                 {
                 ; 0000 019E                     crlf = 0;
000326 24aa      	CLR  R10
000327 24bb      	CLR  R11
                 ; 0000 019F                     recvLRC = byte[i-1];
000328 01f3      	MOVW R30,R6
000329 9731      	SBIW R30,1
00032a 56ed      	SUBI R30,LOW(-_byte)
00032b 4ffa      	SBCI R31,HIGH(-_byte)
00032c 8100      	LD   R16,Z
                 ; 0000 01A0                     LRC += (unsigned char)ModbusAccumulate(byte, i-1);
00032d 940e 0970 	CALL SUBOPT_0x18
00032f 93ff      	PUSH R31
000330 93ef      	PUSH R30
000331 940e 0974 	CALL SUBOPT_0x19
000333 01f3      	MOVW R30,R6
000334 9731      	SBIW R30,1
000335 93fa      	ST   -Y,R31
000336 93ea      	ST   -Y,R30
000337 de83      	RCALL _ModbusAccumulate
000338 e0f0      	LDI  R31,0
000339 e0f0      	LDI  R31,0
00033a 91af      	POP  R26
00033b 91bf      	POP  R27
00033c 0fea      	ADD  R30,R26
00033d 93e0 05bb 	STS  _LRC,R30
                 ; 0000 01A1                     LRC = (LRC ^ 0xFF)+1;
00033f 940e 0970 	CALL SUBOPT_0x18
000341 940e 0979 	CALL SUBOPT_0x1A
                 ; 0000 01A2                     if(LRC != recvLRC)
000343 91a0 05bb 	LDS  R26,_LRC
000345 170a      	CP   R16,R26
000346 f009      	BREQ _0x60
                 ; 0000 01A3                     {
                 ; 0000 01A4                         modbus_state = 0;
000347 c1a3      	RJMP _0xA0
                 ; 0000 01A5                         break;
                 ; 0000 01A6                     }
                 ; 0000 01A7                     else
                 _0x60:
                 ; 0000 01A8                     {
                 ; 0000 01A9                         goto start_function;
000348 c023      	RJMP _0x62
                 ; 0000 01AA                     }
                 ; 0000 01AB                 }
                 ; 0000 01AC                 else if(recv == ':')
                 _0x5D:
000349 331a      	CPI  R17,58
00034a f419      	BRNE _0x64
                 ; 0000 01AD                 {
                 ; 0000 01AE                     modbus_state = 1;
00034b 940e 093c 	CALL SUBOPT_0x13
                 ; 0000 01AF                     i = 0;
                 ; 0000 01B0                     LRC = 0;
                 ; 0000 01B1                 }
                 ; 0000 01B2                 else
00034d c01d      	RJMP _0x65
                 _0x64:
                 ; 0000 01B3                 {
                 ; 0000 01B4                     data[k] = recv;
00034e 01f4      	MOVW R30,R8
00034f 5bed      	SUBI R30,LOW(-_data)
000350 4ffa      	SBCI R31,HIGH(-_data)
000351 8310      	ST   Z,R17
                 ; 0000 01B5                     k++;
000352 01f4      	MOVW R30,R8
000353 9631      	ADIW R30,1
000354 014f      	MOVW R8,R30
                 ; 0000 01B6                     if(k == 2)
000355 e0e2      	LDI  R30,LOW(2)
000356 e0f0      	LDI  R31,HIGH(2)
000357 15e8      	CP   R30,R8
000358 05f9      	CPC  R31,R9
000359 f489      	BRNE _0x66
                 ; 0000 01B7                     {
                 ; 0000 01B8                         ModbusASCIIToByte(&byte[i], data[0], data[1]);
00035a 01f3      	MOVW R30,R6
00035b 56ed      	SUBI R30,LOW(-_byte)
00035c 4ffa      	SBCI R31,HIGH(-_byte)
00035d 93fa      	ST   -Y,R31
00035e 93ea      	ST   -Y,R30
00035f 91e0 0543 	LDS  R30,_data
000361 93ea      	ST   -Y,R30
                +
000362 91e0 0544+LDS R30 , _data + 1
                 	__GETB1MN _data,1
000364 93ea      	ST   -Y,R30
000365 dea2      	RCALL _ModbusASCIIToByte
                 ; 0000 01B9                         i++;
000366 01f3      	MOVW R30,R6
000367 9631      	ADIW R30,1
000368 013f      	MOVW R6,R30
                 ; 0000 01BA                         k = 0;
000369 2488      	CLR  R8
00036a 2499      	CLR  R9
                 ; 0000 01BB                     }
                 ; 0000 01BC                 }
                 _0x66:
                 _0x65:
                 _0x5C:
                 ; 0000 01BD             	break;
00036b c181      	RJMP _0x4B
                 ; 0000 01BE 
                 ; 0000 01BF             start_function:
                 _0x62:
                 ; 0000 01C0                 switch(function)
00036c 91e0 0542 	LDS  R30,_function
00036e e0f0      	LDI  R31,0
                 ; 0000 01C1                 {
                 ; 0000 01C2                    #if (MODBUS_USE_COILS == 1)
                 ; 0000 01C3                    case 1:
00036f 30e1      	CPI  R30,LOW(0x1)
000370 e0a0      	LDI  R26,HIGH(0x1)
000371 07fa      	CPC  R31,R26
000372 f501      	BRNE _0x6A
                 ; 0000 01C4 			if(byte[0]*256+byte[1] + byte[2]*256+byte[3] > MODBUS_NUM_COILS || byte[2]*256+byte[3] == 0)
000373 940e 0981 	CALL SUBOPT_0x1B
000375 940e 0989 	CALL SUBOPT_0x1C
000377 f434      	BRGE _0x6C
000378 940e 0997 	CALL SUBOPT_0x1D
00037a 0fae      	ADD  R26,R30
00037b 1fbf      	ADC  R27,R31
00037c 9710      	SBIW R26,0
00037d f409      	BRNE _0x6B
                 _0x6C:
                 ; 0000 01C5                         {
                 ; 0000 01C6                             modbus_state = 0;
00037e c0f7      	RJMP _0xA1
                 ; 0000 01C7                             break;
                 ; 0000 01C8                         }
                 ; 0000 01C9 			byte[0] = ModbusGetMultipleCoils(byte[0]*256+byte[1], byte[2]*256+byte[3], &byte[1]);
                 _0x6B:
00037f 940e 0981 	CALL SUBOPT_0x1B
000381 940e 0930 	CALL SUBOPT_0x11
000383 940e 0997 	CALL SUBOPT_0x1D
000385 940e 0930 	CALL SUBOPT_0x11
                +
000387 e9e4     +LDI R30 , LOW ( _byte + 1 )
000388 e0f5     +LDI R31 , HIGH ( _byte + 1 )
                 	__POINTW1MN _byte,1
000389 93fa      	ST   -Y,R31
00038a 93ea      	ST   -Y,R30
00038b dd38      	RCALL _ModbusGetMultipleCoils
00038c 93e0 0593 	STS  _byte,R30
                 ; 0000 01CA 
                 ; 0000 01CB                         i = byte[0]+1;
00038e 940e 096c 	CALL SUBOPT_0x17
000390 9631      	ADIW R30,1
000391 013f      	MOVW R6,R30
                 ; 0000 01CC                         break;
000392 c0e5      	RJMP _0x69
                 ; 0000 01CD 
                 ; 0000 01CE                     case 5:
                 _0x6A:
000393 30e5      	CPI  R30,LOW(0x5)
000394 e0a0      	LDI  R26,HIGH(0x5)
000395 07fa      	CPC  R31,R26
000396 f571      	BRNE _0x6E
                 ; 0000 01CF                         if(byte[2] == 0xFF && byte[3] == 0x00)
                +
000397 91e0 0595+LDS R30 , _byte + 2
                 	__GETB1MN _byte,2
000399 3fef      	CPI  R30,LOW(0xFF)
00039a f421      	BRNE _0x70
                +
00039b 91e0 0596+LDS R30 , _byte + 3
                 	__GETB1MN _byte,3
00039d 30e0      	CPI  R30,0
00039e f009      	BREQ _0x71
                 _0x70:
00039f c00b      	RJMP _0x6F
                 _0x71:
                 ; 0000 01D0                         {
                 ; 0000 01D1                             if(ModbusSetCoilPrivate(byte[0]*256+byte[1], 1) == -1)
0003a0 940e 0981 	CALL SUBOPT_0x1B
0003a2 940e 0930 	CALL SUBOPT_0x11
0003a4 e0e1      	LDI  R30,LOW(1)
0003a5 940e 099f 	CALL SUBOPT_0x1E
0003a7 f411      	BRNE _0x72
                 ; 0000 01D2                             {
                 ; 0000 01D3                                 modbus_state = 0;
0003a8 2444      	CLR  R4
0003a9 2455      	CLR  R5
                 ; 0000 01D4                             }
                 ; 0000 01D5                         }
                 _0x72:
                 ; 0000 01D6                         else if(byte[2] == 0x00 && byte[3] == 0x00)
0003aa c016      	RJMP _0x73
                 _0x6F:
                +
0003ab 91e0 0595+LDS R30 , _byte + 2
                 	__GETB1MN _byte,2
0003ad 30e0      	CPI  R30,0
0003ae f421      	BRNE _0x75
                +
0003af 91e0 0596+LDS R30 , _byte + 3
                 	__GETB1MN _byte,3
0003b1 30e0      	CPI  R30,0
0003b2 f009      	BREQ _0x76
                 _0x75:
0003b3 c00b      	RJMP _0x74
                 _0x76:
                 ; 0000 01D7                         {
                 ; 0000 01D8                             if(ModbusSetCoilPrivate(byte[0]*256+byte[1], 0) == -1)
0003b4 940e 0981 	CALL SUBOPT_0x1B
0003b6 940e 0930 	CALL SUBOPT_0x11
0003b8 e0e0      	LDI  R30,LOW(0)
0003b9 940e 099f 	CALL SUBOPT_0x1E
0003bb f411      	BRNE _0x77
                 ; 0000 01D9                             {
                 ; 0000 01DA                                 modbus_state = 0;
0003bc 2444      	CLR  R4
0003bd 2455      	CLR  R5
                 ; 0000 01DB                             }
                 ; 0000 01DC                         }
                 _0x77:
                 ; 0000 01DD                         else
0003be c002      	RJMP _0x78
                 _0x74:
                 ; 0000 01DE                         {
                 ; 0000 01DF                             modbus_state = 0;
0003bf 2444      	CLR  R4
0003c0 2455      	CLR  R5
                 ; 0000 01E0                         }
                 _0x78:
                 _0x73:
                 ; 0000 01E1                         i = 4;
0003c1 e0e4      	LDI  R30,LOW(4)
0003c2 e0f0      	LDI  R31,HIGH(4)
0003c3 013f      	MOVW R6,R30
                 ; 0000 01E2                         break;
0003c4 c0b3      	RJMP _0x69
                 ; 0000 01E3 
                 ; 0000 01E4                     case 15:
                 _0x6E:
0003c5 30ef      	CPI  R30,LOW(0xF)
0003c6 e0a0      	LDI  R26,HIGH(0xF)
0003c7 07fa      	CPC  R31,R26
0003c8 f5c9      	BRNE _0x79
                 ; 0000 01E5                         if(byte[0]*256+byte[1] + byte[2]*256+byte[3] > MODBUS_NUM_COILS || byte[2]*256+byte[3] == 0)
0003c9 940e 0981 	CALL SUBOPT_0x1B
0003cb 940e 0989 	CALL SUBOPT_0x1C
0003cd f434      	BRGE _0x7B
0003ce 940e 0997 	CALL SUBOPT_0x1D
0003d0 0fae      	ADD  R26,R30
0003d1 1fbf      	ADC  R27,R31
0003d2 9710      	SBIW R26,0
0003d3 f409      	BRNE _0x7A
                 _0x7B:
                 ; 0000 01E6                         {
                 ; 0000 01E7                             modbus_state = 0;
0003d4 c0a1      	RJMP _0xA1
                 ; 0000 01E8                             break;
                 ; 0000 01E9                         }
                 ; 0000 01EA 
                 ; 0000 01EB                         for(k = 0; k < byte[2]*256+byte[3]; k++)
                 _0x7A:
0003d5 2488      	CLR  R8
0003d6 2499      	CLR  R9
                 _0x7E:
0003d7 940e 0997 	CALL SUBOPT_0x1D
0003d9 0fea      	ADD  R30,R26
0003da 1ffb      	ADC  R31,R27
0003db 168e      	CP   R8,R30
0003dc 069f      	CPC  R9,R31
0003dd f504      	BRGE _0x7F
                 ; 0000 01EC                         {
                 ; 0000 01ED                             ModbusSetCoilPrivate(byte[0]*256+byte[1]+k, (byte[5+(k>>3)]&(1<<(k%8)))?1:0);
0003de 940e 0981 	CALL SUBOPT_0x1B
0003e0 940e 09a6 	CALL SUBOPT_0x1F
0003e2 940e 0a6c 	CALL __ASRW3
                +
0003e4 56e8     +SUBI R30 , LOW ( - _byte - ( 5 ) )
0003e5 4ffa     +SBCI R31 , HIGH ( - _byte - ( 5 ) )
                 	__ADDW1MN _byte,5
0003e6 8160      	LD   R22,Z
0003e7 2777      	CLR  R23
0003e8 01d4      	MOVW R26,R8
0003e9 e0e8      	LDI  R30,LOW(8)
0003ea e0f0      	LDI  R31,HIGH(8)
0003eb 940e 0a97 	CALL __MODW21
0003ed e0a1      	LDI  R26,LOW(1)
0003ee e0b0      	LDI  R27,HIGH(1)
0003ef 940e 0a4f 	CALL __LSLW12
0003f1 23e6      	AND  R30,R22
0003f2 23f7      	AND  R31,R23
0003f3 9730      	SBIW R30,0
0003f4 f011      	BREQ _0x80
0003f5 e0e1      	LDI  R30,LOW(1)
0003f6 c001      	RJMP _0x81
                 _0x80:
0003f7 e0e0      	LDI  R30,LOW(0)
                 _0x81:
0003f8 93ea      	ST   -Y,R30
0003f9 dc9d      	RCALL _ModbusSetCoilPrivate
                 ; 0000 01EE                         }
0003fa 01f4      	MOVW R30,R8
0003fb 9631      	ADIW R30,1
0003fc 014f      	MOVW R8,R30
0003fd cfd9      	RJMP _0x7E
                 _0x7F:
                 ; 0000 01EF                         i = 4;
0003fe e0e4      	LDI  R30,LOW(4)
0003ff e0f0      	LDI  R31,HIGH(4)
000400 013f      	MOVW R6,R30
                 ; 0000 01F0                         break;
000401 c076      	RJMP _0x69
                 ; 0000 01F1                     #endif
                 ; 0000 01F2 
                 ; 0000 01F3                     #if (MODBUS_USE_REGISTERS == 1)
                 ; 0000 01F4                     case 3:
                 _0x79:
000402 30e3      	CPI  R30,LOW(0x3)
000403 e0a0      	LDI  R26,HIGH(0x3)
000404 07fa      	CPC  R31,R26
000405 f511      	BRNE _0x83
                 ; 0000 01F5 			if(byte[0]*256+byte[1] + byte[2]*256+byte[3] > MODBUS_NUM_REGISTERS || byte[2]*256+byte[3] == 0)
000406 940e 0981 	CALL SUBOPT_0x1B
000408 940e 09ae 	CALL SUBOPT_0x20
00040a f434      	BRGE _0x85
00040b 940e 0997 	CALL SUBOPT_0x1D
00040d 0fae      	ADD  R26,R30
00040e 1fbf      	ADC  R27,R31
00040f 9710      	SBIW R26,0
000410 f409      	BRNE _0x84
                 _0x85:
                 ; 0000 01F6                         {
                 ; 0000 01F7                             modbus_state = 0;
000411 c064      	RJMP _0xA1
                 ; 0000 01F8                             break;
                 ; 0000 01F9                         }
                 ; 0000 01FA 			byte[0] = ModbusGetMultipleRegistersBE(byte[0]*256+byte[1], byte[2]*256+byte[3], (unsigned short*)&byte[1])*2;
                 _0x84:
000412 940e 0981 	CALL SUBOPT_0x1B
000414 940e 0930 	CALL SUBOPT_0x11
000416 940e 0997 	CALL SUBOPT_0x1D
000418 940e 0930 	CALL SUBOPT_0x11
                +
00041a e9e4     +LDI R30 , LOW ( _byte + 1 )
00041b e0f5     +LDI R31 , HIGH ( _byte + 1 )
                 	__POINTW1MN _byte,1
00041c 93fa      	ST   -Y,R31
00041d 93ea      	ST   -Y,R30
00041e dd5a      	RCALL _ModbusGetMultipleRegistersBE
00041f 0fee      	LSL  R30
000420 1fff      	ROL  R31
000421 93e0 0593 	STS  _byte,R30
                 ; 0000 01FB 
                 ; 0000 01FC                         i = byte[0]+1;
000423 940e 096c 	CALL SUBOPT_0x17
000425 9631      	ADIW R30,1
000426 013f      	MOVW R6,R30
                 ; 0000 01FD                         break;
000427 c050      	RJMP _0x69
                 ; 0000 01FE 
                 ; 0000 01FF                     case 6:
                 _0x83:
000428 30e6      	CPI  R30,LOW(0x6)
000429 e0a0      	LDI  R26,HIGH(0x6)
00042a 07fa      	CPC  R31,R26
00042b f499      	BRNE _0x87
                 ; 0000 0200                         if(ModbusSetRegisterPrivate(byte[0]*256+byte[1], byte[2]*256+byte[3]) == -1)
00042c 940e 0981 	CALL SUBOPT_0x1B
00042e 940e 0930 	CALL SUBOPT_0x11
000430 940e 0997 	CALL SUBOPT_0x1D
000432 940e 0930 	CALL SUBOPT_0x11
000434 dd02      	RCALL _ModbusSetRegisterPrivate
000435 3fef      	CPI  R30,LOW(0xFFFF)
000436 efaf      	LDI  R26,HIGH(0xFFFF)
000437 07fa      	CPC  R31,R26
000438 f411      	BRNE _0x88
                 ; 0000 0201                         {
                 ; 0000 0202                             modbus_state = 0;
000439 2444      	CLR  R4
00043a 2455      	CLR  R5
                 ; 0000 0203                         }
                 ; 0000 0204                         i = 4;
                 _0x88:
00043b e0e4      	LDI  R30,LOW(4)
00043c e0f0      	LDI  R31,HIGH(4)
00043d 013f      	MOVW R6,R30
                 ; 0000 0205                         break;
00043e c039      	RJMP _0x69
                 ; 0000 0206 
                 ; 0000 0207                     case 16:
                 _0x87:
00043f 31e0      	CPI  R30,LOW(0x10)
000440 e0a0      	LDI  R26,HIGH(0x10)
000441 07fa      	CPC  R31,R26
000442 f599      	BRNE _0x90
                 ; 0000 0208                         if(byte[0]*256+byte[1] + byte[2]*256+byte[3] > MODBUS_NUM_REGISTERS || byte[2]*256+byte[3] == 0)
000443 940e 0981 	CALL SUBOPT_0x1B
000445 940e 09ae 	CALL SUBOPT_0x20
000447 f434      	BRGE _0x8B
000448 940e 0997 	CALL SUBOPT_0x1D
00044a 0fae      	ADD  R26,R30
00044b 1fbf      	ADC  R27,R31
00044c 9710      	SBIW R26,0
00044d f409      	BRNE _0x8A
                 _0x8B:
                 ; 0000 0209                         {
                 ; 0000 020A                             modbus_state = 0;
00044e c027      	RJMP _0xA1
                 ; 0000 020B                             break;
                 ; 0000 020C                         }
                 ; 0000 020D                         for(k = 0; k < byte[2]*256+byte[3]; k++)
                 _0x8A:
00044f 2488      	CLR  R8
000450 2499      	CLR  R9
                 _0x8E:
000451 940e 0997 	CALL SUBOPT_0x1D
000453 0fea      	ADD  R30,R26
000454 1ffb      	ADC  R31,R27
000455 168e      	CP   R8,R30
000456 069f      	CPC  R9,R31
000457 f4d4      	BRGE _0x8F
                 ; 0000 020E                         {
                 ; 0000 020F                             ModbusSetRegisterPrivate(byte[0]*256+byte[1]+k, byte[5+k*2]*256+byte[6+k*2]);
000458 940e 0981 	CALL SUBOPT_0x1B
00045a 940e 09a6 	CALL SUBOPT_0x1F
00045c 0fee      	LSL  R30
00045d 1fff      	ROL  R31
                +
00045e 56e8     +SUBI R30 , LOW ( - _byte - ( 5 ) )
00045f 4ffa     +SBCI R31 , HIGH ( - _byte - ( 5 ) )
                 	__ADDW1MN _byte,5
000460 81e0      	LD   R30,Z
000461 2ffe      	MOV  R31,R30
000462 e0e0      	LDI  R30,0
000463 01df      	MOVW R26,R30
000464 01f4      	MOVW R30,R8
000465 0fee      	LSL  R30
000466 1fff      	ROL  R31
                +
000467 56e7     +SUBI R30 , LOW ( - _byte - ( 6 ) )
000468 4ffa     +SBCI R31 , HIGH ( - _byte - ( 6 ) )
                 	__ADDW1MN _byte,6
000469 81e0      	LD   R30,Z
00046a e0f0      	LDI  R31,0
00046b 940e 0930 	CALL SUBOPT_0x11
00046d dcc9      	RCALL _ModbusSetRegisterPrivate
                 ; 0000 0210                         }
00046e 01f4      	MOVW R30,R8
00046f 9631      	ADIW R30,1
000470 014f      	MOVW R8,R30
000471 cfdf      	RJMP _0x8E
                 _0x8F:
                 ; 0000 0211                         i = 4;
000472 e0e4      	LDI  R30,LOW(4)
000473 e0f0      	LDI  R31,HIGH(4)
000474 013f      	MOVW R6,R30
                 ; 0000 0212                         break;
000475 c002      	RJMP _0x69
                 ; 0000 0213                     #endif
                 ; 0000 0214 
                 ; 0000 0215                     default:
                 _0x90:
                 ; 0000 0216                         modbus_state = 0;
                 _0xA1:
000476 2444      	CLR  R4
000477 2455      	CLR  R5
                 ; 0000 0217                         break;
                 ; 0000 0218                 }
                 _0x69:
                 ; 0000 0219                 if(modbus_state == 3 && !broadcast)
000478 e0e3      	LDI  R30,LOW(3)
000479 e0f0      	LDI  R31,HIGH(3)
00047a 15e4      	CP   R30,R4
00047b 05f5      	CPC  R31,R5
00047c f419      	BRNE _0x92
00047d 2c0c      	MOV  R0,R12
00047e 280d      	OR   R0,R13
00047f f009      	BREQ _0x93
                 _0x92:
000480 c067      	RJMP _0x91
                 _0x93:
                 ; 0000 021A                 {
                 ; 0000 021B                     data[0] = ':';
000481 e3ea      	LDI  R30,LOW(58)
000482 93e0 0543 	STS  _data,R30
                 ; 0000 021C                     ModbusByteToASCII(slave_address, &data[1], &data[2]);
000484 91e0 0500 	LDS  R30,_slave_address_G000
000486 93ea      	ST   -Y,R30
                +
000487 e4e4     +LDI R30 , LOW ( _data + 1 )
000488 e0f5     +LDI R31 , HIGH ( _data + 1 )
                 	__POINTW1MN _data,1
000489 93fa      	ST   -Y,R31
00048a 93ea      	ST   -Y,R30
                +
00048b e4e5     +LDI R30 , LOW ( _data + 2 )
00048c e0f5     +LDI R31 , HIGH ( _data + 2 )
                 	__POINTW1MN _data,2
00048d 940e 09bc 	CALL SUBOPT_0x21
                 ; 0000 021D                     ModbusByteToASCII(function, &data[3], &data[4]);
00048f 91e0 0542 	LDS  R30,_function
000491 93ea      	ST   -Y,R30
                +
000492 e4e6     +LDI R30 , LOW ( _data + 3 )
000493 e0f5     +LDI R31 , HIGH ( _data + 3 )
                 	__POINTW1MN _data,3
000494 93fa      	ST   -Y,R31
000495 93ea      	ST   -Y,R30
                +
000496 e4e7     +LDI R30 , LOW ( _data + 4 )
000497 e0f5     +LDI R31 , HIGH ( _data + 4 )
                 	__POINTW1MN _data,4
000498 940e 09bc 	CALL SUBOPT_0x21
                 ; 0000 021E                     ModbusAsciify(byte, &data[5], i);
00049a 940e 0974 	CALL SUBOPT_0x19
                +
00049c e4e8     +LDI R30 , LOW ( _data + 5 )
00049d e0f5     +LDI R31 , HIGH ( _data + 5 )
                 	__POINTW1MN _data,5
00049e 93fa      	ST   -Y,R31
00049f 93ea      	ST   -Y,R30
0004a0 927a      	ST   -Y,R7
0004a1 926a      	ST   -Y,R6
0004a2 dd94      	RCALL _ModbusAsciify
                 ; 0000 021F                     LRC = ModbusAccumulate(byte, i);
0004a3 940e 0974 	CALL SUBOPT_0x19
0004a5 927a      	ST   -Y,R7
0004a6 926a      	ST   -Y,R6
0004a7 dd13      	RCALL _ModbusAccumulate
0004a8 93e0 05bb 	STS  _LRC,R30
                 ; 0000 0220                     LRC += slave_address;
0004aa 91a0 05bb 	LDS  R26,_LRC
0004ac 27bb      	CLR  R27
0004ad 91e0 0500 	LDS  R30,_slave_address_G000
0004af 940e 09c0 	CALL SUBOPT_0x22
                 ; 0000 0221                     LRC += function;
0004b1 91a0 05bb 	LDS  R26,_LRC
0004b3 27bb      	CLR  R27
0004b4 91e0 0542 	LDS  R30,_function
0004b6 940e 09c0 	CALL SUBOPT_0x22
                 ; 0000 0222                     LRC = (LRC ^ 0xFF)+1;
0004b8 940e 0970 	CALL SUBOPT_0x18
0004ba 940e 0979 	CALL SUBOPT_0x1A
                 ; 0000 0223                     ModbusByteToASCII(LRC, &data[i*2+5], &data[i*2+6]);
0004bc 91e0 05bb 	LDS  R30,_LRC
0004be 93ea      	ST   -Y,R30
0004bf 01f3      	MOVW R30,R6
0004c0 0fee      	LSL  R30
0004c1 1fff      	ROL  R31
                +
0004c2 5be8     +SUBI R30 , LOW ( - _data - ( 5 ) )
0004c3 4ffa     +SBCI R31 , HIGH ( - _data - ( 5 ) )
                 	__ADDW1MN _data,5
0004c4 93fa      	ST   -Y,R31
0004c5 93ea      	ST   -Y,R30
0004c6 01f3      	MOVW R30,R6
0004c7 0fee      	LSL  R30
0004c8 1fff      	ROL  R31
                +
0004c9 5be7     +SUBI R30 , LOW ( - _data - ( 6 ) )
0004ca 4ffa     +SBCI R31 , HIGH ( - _data - ( 6 ) )
                 	__ADDW1MN _data,6
0004cb 940e 09bc 	CALL SUBOPT_0x21
                 ; 0000 0224                     data[i*2+7] = '\r';
0004cd 01f3      	MOVW R30,R6
0004ce 0fee      	LSL  R30
0004cf 1fff      	ROL  R31
                +
0004d0 5be6     +SUBI R30 , LOW ( - _data - ( 7 ) )
0004d1 4ffa     +SBCI R31 , HIGH ( - _data - ( 7 ) )
                 	__ADDW1MN _data,7
0004d2 e0ad      	LDI  R26,LOW(13)
0004d3 83a0      	STD  Z+0,R26
                 ; 0000 0225                     data[i*2+8] = '\n';
0004d4 01f3      	MOVW R30,R6
0004d5 0fee      	LSL  R30
0004d6 1fff      	ROL  R31
                +
0004d7 5be5     +SUBI R30 , LOW ( - _data - ( 8 ) )
0004d8 4ffa     +SBCI R31 , HIGH ( - _data - ( 8 ) )
                 	__ADDW1MN _data,8
0004d9 e0aa      	LDI  R26,LOW(10)
0004da 83a0      	STD  Z+0,R26
                 ; 0000 0226 
                 ; 0000 0227                     ModbusUartPutString(data, i*2+9);
0004db e4e3      	LDI  R30,LOW(_data)
0004dc e0f5      	LDI  R31,HIGH(_data)
0004dd 93fa      	ST   -Y,R31
0004de 93ea      	ST   -Y,R30
0004df 01f3      	MOVW R30,R6
0004e0 0fee      	LSL  R30
0004e1 1fff      	ROL  R31
0004e2 9639      	ADIW R30,9
0004e3 93fa      	ST   -Y,R31
0004e4 93ea      	ST   -Y,R30
0004e5 d144      	RCALL _ModbusUartPutString
                 ; 0000 0228 					modbus_state = 0;
0004e6 2444      	CLR  R4
0004e7 2455      	CLR  R5
                 ; 0000 0229 		}
                 ; 0000 022A 		broadcast = 0;
                 _0x91:
0004e8 24cc      	CLR  R12
0004e9 24dd      	CLR  R13
                 ; 0000 022B 
                 ; 0000 022C                 break;
0004ea c002      	RJMP _0x4B
                 ; 0000 022D 
                 ; 0000 022E             default:
                 _0x94:
                 ; 0000 022F                 modbus_state = 0;
                 _0xA0:
0004eb 2444      	CLR  R4
0004ec 2455      	CLR  R5
                 ; 0000 0230                 break;
                 ; 0000 0231         }
                 _0x4B:
                 ; 0000 0232     }
0004ed cdc7      	RJMP _0x46
                 _0x48:
                 ; 0000 0233 }
0004ee 9109      	LD   R16,Y+
0004ef 9119      	LD   R17,Y+
0004f0 9508      	RET
                 ;
                 ;#if (MODBUS_USE_EVENTS == 1)
                 ;void ModbusEventDispatcher()
                 ; 0000 0237 {
                 _ModbusEventDispatcher:
                 ; 0000 0238     unsigned char event;
                 ; 0000 0239     while(events_num)
0004f1 931a      	ST   -Y,R17
                 ;	event -> R17
                 _0x95:
0004f2 91e0 051b 	LDS  R30,_events_num_G000
0004f4 30e0      	CPI  R30,0
0004f5 f411      	BRNE PC+3
0004f6 940c 0540 	JMP _0x97
                 ; 0000 023A     {
                 ; 0000 023B         event = events_array[events_tail];
0004f8 91e0 051d 	LDS  R30,_events_tail_G000
0004fa e0f0      	LDI  R31,0
0004fb 5eeb      	SUBI R30,LOW(-_events_array_G000)
0004fc 4ffa      	SBCI R31,HIGH(-_events_array_G000)
0004fd 8110      	LD   R17,Z
                 ; 0000 023C         events_num--;
0004fe 91e0 051b 	LDS  R30,_events_num_G000
000500 50e1      	SUBI R30,LOW(1)
000501 93e0 051b 	STS  _events_num_G000,R30
                 ; 0000 023D         if(++events_tail == MODBUS_NUM_EVENTS) events_tail = 0;
000503 91a0 051d 	LDS  R26,_events_tail_G000
000505 5faf      	SUBI R26,-LOW(1)
000506 93a0 051d 	STS  _events_tail_G000,R26
000508 30a6      	CPI  R26,LOW(0x6)
000509 f419      	BRNE _0x98
00050a e0e0      	LDI  R30,LOW(0)
00050b 93e0 051d 	STS  _events_tail_G000,R30
                 ; 0000 023E         switch(event>>6)
                 _0x98:
00050d 940e 09c5 	CALL SUBOPT_0x23
00050f e0e6      	LDI  R30,LOW(6)
000510 940e 0a58 	CALL __ASRW12
                 ; 0000 023F         {
                 ; 0000 0240             case MODBUS_EVENT_COIL:
000512 9730      	SBIW R30,0
000513 f499      	BRNE _0x9C
                 ; 0000 0241                 (*CoilsEventFunctions[event&0x3f])(event&0x3F);
000514 940e 09c5 	CALL SUBOPT_0x23
000516 e3ef      	LDI  R30,LOW(63)
000517 e0f0      	LDI  R31,HIGH(63)
000518 23ea      	AND  R30,R26
000519 23fb      	AND  R31,R27
00051a 010f      	MOVW R0,R30
00051b 940e 08c4 	CALL SUBOPT_0x1
00051d 940e 0915 	CALL SUBOPT_0xC
00051f 93ff      	PUSH R31
000520 93ef      	PUSH R30
000521 921a      	ST   -Y,R1
000522 920a      	ST   -Y,R0
000523 91ef      	POP  R30
000524 91ff      	POP  R31
000525 9509      	ICALL
                 ; 0000 0242                  break;
000526 c018      	RJMP _0x9B
                 ; 0000 0243 
                 ; 0000 0244             case MODBUS_EVENT_REGISTER:
                 _0x9C:
000527 30e1      	CPI  R30,LOW(0x1)
000528 e0a0      	LDI  R26,HIGH(0x1)
000529 07fa      	CPC  R31,R26
00052a f4a1      	BRNE _0x9E
                 ; 0000 0245                 (*RegistersEventFunctions[event&0x3f])(event&0x3F);
00052b 940e 09c5 	CALL SUBOPT_0x23
00052d e3ef      	LDI  R30,LOW(63)
00052e e0f0      	LDI  R31,HIGH(63)
00052f 23ea      	AND  R30,R26
000530 23fb      	AND  R31,R27
000531 010f      	MOVW R0,R30
000532 e3a6      	LDI  R26,LOW(_RegistersEventFunctions_G000)
000533 e0b5      	LDI  R27,HIGH(_RegistersEventFunctions_G000)
000534 0fee      	LSL  R30
000535 1fff      	ROL  R31
000536 940e 0915 	CALL SUBOPT_0xC
000538 93ff      	PUSH R31
000539 93ef      	PUSH R30
00053a 921a      	ST   -Y,R1
00053b 920a      	ST   -Y,R0
00053c 91ef      	POP  R30
00053d 91ff      	POP  R31
00053e 9509      	ICALL
                 ; 0000 0246                 break;
                 ; 0000 0247 
                 ; 0000 0248             default:
                 _0x9E:
                 ; 0000 0249                 break;
                 ; 0000 024A         }
                 _0x9B:
                 ; 0000 024B     }
00053f cfb2      	RJMP _0x95
                 _0x97:
                 ; 0000 024C }
000540 940c 0753 	JMP  _0x20A0003
                 ;#endif
                 ;
                 ;#include "modbus_atmega.h"
                 ;
                 ;#if defined _ATMEGA8_
                 ;#include "mega8.h"
                 ;#elif defined _ATMEGA16_
                 ;#include "mega16.h"
                 ;#elif defined _ATMEGA32_
                 ;#include "mega32.h"
                 ;#elif defined _ATMEGA64_
                 ;#include "mega64.h"
                 ;#elif defined _ATMEGA128_
                 ;#include "mega128.h"
                 	#ifndef __SLEEP_DEFINED__
                 	#define __SLEEP_DEFINED__
                 	.EQU __se_bit=0x20
                 	.EQU __sm_mask=0x1C
                 	.EQU __sm_powerdown=0x10
                 	.EQU __sm_powersave=0x18
                 	.EQU __sm_standby=0x14
                 	.EQU __sm_ext_standby=0x1C
                 	.EQU __sm_adc_noise_red=0x08
                 	.SET power_ctrl_reg=mcucr
                 	#endif
                 ;#endif
                 ;
                 ;#if defined _ATMEGA8_ || defined _ATMEGA16_ || defined _ATMEGA32_
                 ;#define __USART_RXC__ USART_RXC
                 ;#define __USART_TXC__ USART_TXC
                 ;#define __UDR__ UDR
                 ;#define __UBRRH__ UBRRH
                 ;#define __UBRRL__ UBRRL
                 ;#define __UCSRA__ UCSRA
                 ;#define __UCSRB__ UCSRB
                 ;#define __UCSRC__ UCSRC
                 ;#elif defined _ATMEGA64_ || defined _ATMEGA128_
                 ;#if defined _UART0_
                 ;#define __USART_RXC__ USART0_RXC
                 ;#define __USART_TXC__ USART0_TXC
                 ;#define __UDR__ UDR0
                 ;#define __UBRRH__ UBRR0H
                 ;#define __UBRRL__ UBRR0L
                 ;#define __UCSRA__ UCSR0A
                 ;#define __UCSRB__ UCSR0B
                 ;#define __UCSRC__ UCSR0C
                 ;#elif defined _UART1_
                 ;#define __USART_RXC__ USART1_RXC
                 ;#define __USART_TXC__ USART1_TXC
                 ;#define __UDR__ UDR1
                 ;#define __UBRRH__ UBRR1H
                 ;#define __UBRRL__ UBRR1L
                 ;#define __UCSRA__ UCSR1A
                 ;#define __UCSRB__ UCSR1B
                 ;#define __UCSRC__ UCSR1C
                 ;#endif
                 ;#endif
                 ;
                 ;#define UPE 2
                 ;#define OVR 3
                 ;#define FE 4
                 ;#define UDRE 5
                 ;#define RXC 7
                 ;
                 ;#define FRAMING_ERROR (1<<FE)
                 ;#define PARITY_ERROR (1<<UPE)
                 ;#define DATA_OVERRUN (1<<OVR)
                 ;#define DATA_REGISTER_EMPTY (1<<UDRE)
                 ;#define RX_COMPLETE (1<<RXC)
                 ;
                 ;void (*DirPinFunction)(int val);
                 ;void (*ModbusMainFunction)(void);
                 ;
                 ;// USART Receiver buffer
                 ;#define RX_BUFFER_SIZE 64
                 ;char rx_buffer[RX_BUFFER_SIZE];
                 ;unsigned char rx_wr_index,rx_rd_index,rx_counter;
                 ;// This flag is set on USART Receiver buffer overflow
                 ;bit rx_buffer_overflow;
                 ;// USART Receiver interrupt service routine
                 ;interrupt [__USART_RXC__] void usart_rx_isr(void)
                 ; 0001 0045 {
                 
                 	.CSEG
                 _usart_rx_isr:
000542 940e 09c8 	CALL SUBOPT_0x24
                 ; 0001 0046     char status,data;
                 ; 0001 0047     status=__UCSRA__;
000544 931a      	ST   -Y,R17
000545 930a      	ST   -Y,R16
                 ;	status -> R17
                 ;	data -> R16
000546 9110 009b 	LDS  R17,155
                 ; 0001 0048     data=__UDR__;
000548 9100 009c 	LDS  R16,156
                 ; 0001 0049     if ((status & (FRAMING_ERROR | PARITY_ERROR | DATA_OVERRUN))==0)
00054a 940e 09c5 	CALL SUBOPT_0x23
00054c e1ec      	LDI  R30,LOW(28)
00054d e0f0      	LDI  R31,HIGH(28)
00054e 23ea      	AND  R30,R26
00054f 23fb      	AND  R31,R27
000550 9730      	SBIW R30,0
000551 f539      	BRNE _0x20003
                 ; 0001 004A     {
                 ; 0001 004B         rx_buffer[rx_wr_index]=data;
000552 91e0 0600 	LDS  R30,_rx_wr_index
000554 e0f0      	LDI  R31,0
000555 54e0      	SUBI R30,LOW(-_rx_buffer)
000556 4ffa      	SBCI R31,HIGH(-_rx_buffer)
000557 8300      	ST   Z,R16
                 ; 0001 004C         if (++rx_wr_index == RX_BUFFER_SIZE) rx_wr_index=0;
000558 91a0 0600 	LDS  R26,_rx_wr_index
00055a 5faf      	SUBI R26,-LOW(1)
00055b 93a0 0600 	STS  _rx_wr_index,R26
00055d 34a0      	CPI  R26,LOW(0x40)
00055e f419      	BRNE _0x20004
00055f e0e0      	LDI  R30,LOW(0)
000560 93e0 0600 	STS  _rx_wr_index,R30
                 ; 0001 004D         if (++rx_counter == RX_BUFFER_SIZE)
                 _0x20004:
000562 91a0 0602 	LDS  R26,_rx_counter
000564 5faf      	SUBI R26,-LOW(1)
000565 93a0 0602 	STS  _rx_counter,R26
000567 34a0      	CPI  R26,LOW(0x40)
000568 f429      	BRNE _0x20005
                 ; 0001 004E         {
                 ; 0001 004F             rx_counter=0;
000569 e0e0      	LDI  R30,LOW(0)
00056a 93e0 0602 	STS  _rx_counter,R30
                 ; 0001 0050             rx_buffer_overflow=1;
00056c 9468      	SET
00056d f820      	BLD  R2,0
                 ; 0001 0051         };
                 _0x20005:
                 ; 0001 0052 
                 ; 0001 0053         if(ModbusMainFunction != 0)
00056e 91e0 05be 	LDS  R30,_ModbusMainFunction
000570 91f0 05bf 	LDS  R31,_ModbusMainFunction+1
000572 9730      	SBIW R30,0
000573 f029      	BREQ _0x20006
                 ; 0001 0054         {
                 ; 0001 0055             ModbusMainFunction();
                +
000574 91e0 05be+LDS R30 , _ModbusMainFunction + 0
000576 91f0 05bf+LDS R31 , _ModbusMainFunction + 0 + 1
000578 9509     +ICALL
                 	__CALL1MN _ModbusMainFunction,0
                 ; 0001 0056         }
                 ; 0001 0057     };
                 _0x20006:
                 _0x20003:
                 ; 0001 0058 
                 ; 0001 0059 }
000579 9109      	LD   R16,Y+
00057a 9119      	LD   R17,Y+
00057b c026      	RJMP _0x20018
                 ;
                 ;// USART Transmitter buffer
                 ;#define TX_BUFFER_SIZE 64
                 ;char tx_buffer[TX_BUFFER_SIZE];
                 ;unsigned char tx_wr_index,tx_rd_index,tx_counter;
                 ;// USART Transmitter interrupt service routine
                 ;interrupt [__USART_TXC__] void usart_tx_isr(void)
                 ; 0001 0061 {
                 _usart_tx_isr:
00057c 940e 09c8 	CALL SUBOPT_0x24
                 ; 0001 0062     if (tx_counter)
00057e 91e0 0645 	LDS  R30,_tx_counter
000580 30e0      	CPI  R30,0
000581 f0b1      	BREQ _0x20007
                 ; 0001 0063     {
                 ; 0001 0064         --tx_counter;
000582 50e1      	SUBI R30,LOW(1)
000583 93e0 0645 	STS  _tx_counter,R30
                 ; 0001 0065         __UDR__=tx_buffer[tx_rd_index];
000585 91e0 0644 	LDS  R30,_tx_rd_index
000587 e0f0      	LDI  R31,0
000588 5fed      	SUBI R30,LOW(-_tx_buffer)
000589 4ff9      	SBCI R31,HIGH(-_tx_buffer)
00058a 81e0      	LD   R30,Z
00058b 93e0 009c 	STS  156,R30
                 ; 0001 0066         if (++tx_rd_index == TX_BUFFER_SIZE) tx_rd_index=0;
00058d 91a0 0644 	LDS  R26,_tx_rd_index
00058f 5faf      	SUBI R26,-LOW(1)
000590 93a0 0644 	STS  _tx_rd_index,R26
000592 34a0      	CPI  R26,LOW(0x40)
000593 f419      	BRNE _0x20008
000594 e0e0      	LDI  R30,LOW(0)
000595 93e0 0644 	STS  _tx_rd_index,R30
                 ; 0001 0067     }
                 _0x20008:
                 ; 0001 0068     else
000597 c00a      	RJMP _0x20009
                 _0x20007:
                 ; 0001 0069     {
                 ; 0001 006A         if(DirPinFunction != 0)
000598 91e0 05bc 	LDS  R30,_DirPinFunction
00059a 91f0 05bd 	LDS  R31,_DirPinFunction+1
00059c 9730      	SBIW R30,0
00059d f021      	BREQ _0x2000A
                 ; 0001 006B         {
                 ; 0001 006C             DirPinFunction(0);
00059e e0e0      	LDI  R30,LOW(0)
00059f e0f0      	LDI  R31,HIGH(0)
0005a0 940e 09d6 	CALL SUBOPT_0x25
                 ; 0001 006D         }
                 ; 0001 006E     }
                 _0x2000A:
                 _0x20009:
                 ; 0001 006F }
                 _0x20018:
0005a2 91e9      	LD   R30,Y+
0005a3 bfef      	OUT  SREG,R30
0005a4 91f9      	LD   R31,Y+
0005a5 91e9      	LD   R30,Y+
0005a6 91b9      	LD   R27,Y+
0005a7 91a9      	LD   R26,Y+
0005a8 9199      	LD   R25,Y+
0005a9 9189      	LD   R24,Y+
0005aa 9179      	LD   R23,Y+
0005ab 9169      	LD   R22,Y+
0005ac 90f9      	LD   R15,Y+
0005ad 9019      	LD   R1,Y+
0005ae 9009      	LD   R0,Y+
0005af 9518      	RETI
                 ;
                 ;void ModbusUartInit(void (*DirPinFunc)(int), void (*ModbusMainFunc)(void))
                 ; 0001 0072 {
                 _ModbusUartInit:
                 ; 0001 0073     DirPinFunction = DirPinFunc;
                 ;	*DirPinFunc -> Y+2
                 ;	*ModbusMainFunc -> Y+0
0005b0 81ea      	LDD  R30,Y+2
0005b1 81fb      	LDD  R31,Y+2+1
0005b2 93e0 05bc 	STS  _DirPinFunction,R30
0005b4 93f0 05bd 	STS  _DirPinFunction+1,R31
                 ; 0001 0074     ModbusMainFunction = ModbusMainFunc;
0005b6 81e8      	LD   R30,Y
0005b7 81f9      	LDD  R31,Y+1
0005b8 93e0 05be 	STS  _ModbusMainFunction,R30
0005ba 93f0 05bf 	STS  _ModbusMainFunction+1,R31
                 ; 0001 0075 
                 ; 0001 0076     // Communication Parameters: 8 Data, 1 Stop, No Parity
                 ; 0001 0077     // USART Receiver: On
                 ; 0001 0078     // USART Transmitter: On
                 ; 0001 0079     __UCSRA__ = 0x00;
0005bc e0e0      	LDI  R30,LOW(0)
0005bd 93e0 009b 	STS  155,R30
                 ; 0001 007A     __UCSRB__ = 0xD8;
0005bf ede8      	LDI  R30,LOW(216)
0005c0 93e0 009a 	STS  154,R30
                 ; 0001 007B     __UCSRC__ = 0x86;
0005c2 e8e6      	LDI  R30,LOW(134)
0005c3 93e0 009d 	STS  157,R30
                 ; 0001 007C     __UBRRH__ = (MODBUS_OSC/(16*MODBUS_BAUDRATE)-1)>>8;
0005c5 e0e0      	LDI  R30,LOW(0)
0005c6 93e0 0098 	STS  152,R30
                 ; 0001 007D     __UBRRL__ = (MODBUS_OSC/(16*MODBUS_BAUDRATE)-1)&0xFF;
0005c8 e0e5      	LDI  R30,LOW(5)
0005c9 93e0 0099 	STS  153,R30
                 ; 0001 007E }
                 _0x20A0005:
0005cb 9624      	ADIW R28,4
0005cc 9508      	RET
                 ;
                 ;int ModbusUartGetChar(char *data)
                 ; 0001 0081 {
                 _ModbusUartGetChar:
                 ; 0001 0082     if(rx_counter!=0)
                 ;	*data -> Y+0
0005cd 91e0 0602 	LDS  R30,_rx_counter
0005cf 30e0      	CPI  R30,0
0005d0 f0e1      	BREQ _0x2000B
                 ; 0001 0083     {
                 ; 0001 0084         *data=rx_buffer[rx_rd_index];
0005d1 91e0 0601 	LDS  R30,_rx_rd_index
0005d3 e0f0      	LDI  R31,0
0005d4 54e0      	SUBI R30,LOW(-_rx_buffer)
0005d5 4ffa      	SBCI R31,HIGH(-_rx_buffer)
0005d6 81e0      	LD   R30,Z
0005d7 81a8      	LD   R26,Y
0005d8 81b9      	LDD  R27,Y+1
0005d9 93ec      	ST   X,R30
                 ; 0001 0085         if (++rx_rd_index == RX_BUFFER_SIZE) rx_rd_index=0;
0005da 91a0 0601 	LDS  R26,_rx_rd_index
0005dc 5faf      	SUBI R26,-LOW(1)
0005dd 93a0 0601 	STS  _rx_rd_index,R26
0005df 34a0      	CPI  R26,LOW(0x40)
0005e0 f419      	BRNE _0x2000C
0005e1 e0e0      	LDI  R30,LOW(0)
0005e2 93e0 0601 	STS  _rx_rd_index,R30
                 ; 0001 0086     	#if (MODBUS_USE_INTERRUPT == 0)
                 ; 0001 0087 	#asm("cli")
                 ; 0001 0088 	#endif
                 ; 0001 0089 	--rx_counter;
                 _0x2000C:
0005e4 91e0 0602 	LDS  R30,_rx_counter
0005e6 50e1      	SUBI R30,LOW(1)
0005e7 93e0 0602 	STS  _rx_counter,R30
                 ; 0001 008A     	#if (MODBUS_USE_INTERRUPT == 0)
                 ; 0001 008B 	#asm("sei")
                 ; 0001 008C 	#endif
                 ; 0001 008D 
                 ; 0001 008E         return 1;
0005e9 e0e1      	LDI  R30,LOW(1)
0005ea e0f0      	LDI  R31,HIGH(1)
0005eb 940c 0776 	JMP  _0x20A0002
                 ; 0001 008F     }
                 ; 0001 0090     return 0;
                 _0x2000B:
0005ed e0e0      	LDI  R30,LOW(0)
0005ee e0f0      	LDI  R31,HIGH(0)
0005ef 940c 0776 	JMP  _0x20A0002
                 ; 0001 0091 }
                 ;
                 ;int ModbusUartPutChar(char c)
                 ; 0001 0094 {
                 _ModbusUartPutChar:
                 ; 0001 0095     if(tx_counter != TX_BUFFER_SIZE)
                 ;	c -> Y+0
0005f1 91a0 0645 	LDS  R26,_tx_counter
0005f3 34a0      	CPI  R26,LOW(0x40)
0005f4 f189      	BREQ _0x2000D
                 ; 0001 0096     {
                 ; 0001 0097 
                 ; 0001 0098     	#if (MODBUS_USE_INTERRUPT == 0)
                 ; 0001 0099 	#asm("cli")
                 ; 0001 009A 	#endif
                 ; 0001 009B         if (tx_counter || ((__UCSRA__ & DATA_REGISTER_EMPTY)==0))
0005f5 91e0 0645 	LDS  R30,_tx_counter
0005f7 30e0      	CPI  R30,0
0005f8 f429      	BRNE _0x2000F
0005f9 91e0 009b 	LDS  R30,155
0005fb e0f0      	LDI  R31,0
0005fc 72e0      	ANDI R30,LOW(0x20)
0005fd f4b9      	BRNE _0x2000E
                 _0x2000F:
                 ; 0001 009C         {
                 ; 0001 009D             tx_buffer[tx_wr_index]=c;
0005fe 91e0 0643 	LDS  R30,_tx_wr_index
000600 e0f0      	LDI  R31,0
000601 5fed      	SUBI R30,LOW(-_tx_buffer)
000602 4ff9      	SBCI R31,HIGH(-_tx_buffer)
000603 81a8      	LD   R26,Y
000604 83a0      	STD  Z+0,R26
                 ; 0001 009E             if (++tx_wr_index == TX_BUFFER_SIZE) tx_wr_index=0;
000605 91a0 0643 	LDS  R26,_tx_wr_index
000607 5faf      	SUBI R26,-LOW(1)
000608 93a0 0643 	STS  _tx_wr_index,R26
00060a 34a0      	CPI  R26,LOW(0x40)
00060b f419      	BRNE _0x20011
00060c e0e0      	LDI  R30,LOW(0)
00060d 93e0 0643 	STS  _tx_wr_index,R30
                 ; 0001 009F             ++tx_counter;
                 _0x20011:
00060f 91e0 0645 	LDS  R30,_tx_counter
000611 5fef      	SUBI R30,-LOW(1)
000612 93e0 0645 	STS  _tx_counter,R30
                 ; 0001 00A0         }
                 ; 0001 00A1         else
000614 c00d      	RJMP _0x20012
                 _0x2000E:
                 ; 0001 00A2         {
                 ; 0001 00A3             if(DirPinFunction != 0)
000615 91e0 05bc 	LDS  R30,_DirPinFunction
000617 91f0 05bd 	LDS  R31,_DirPinFunction+1
000619 9730      	SBIW R30,0
00061a f021      	BREQ _0x20013
                 ; 0001 00A4             {
                 ; 0001 00A5                 DirPinFunction(1);
00061b e0e1      	LDI  R30,LOW(1)
00061c e0f0      	LDI  R31,HIGH(1)
00061d 940e 09d6 	CALL SUBOPT_0x25
                 ; 0001 00A6             }
                 ; 0001 00A7             __UDR__=c;
                 _0x20013:
00061f 81e8      	LD   R30,Y
000620 93e0 009c 	STS  156,R30
                 ; 0001 00A8         }
                 _0x20012:
                 ; 0001 00A9     	#if (MODBUS_USE_INTERRUPT == 0)
                 ; 0001 00AA 	#asm("sei")
                 ; 0001 00AB 	#endif
                 ; 0001 00AC 
                 ; 0001 00AD         return 1;
000622 e0e1      	LDI  R30,LOW(1)
000623 e0f0      	LDI  R31,HIGH(1)
000624 940c 08bb 	JMP  _0x20A0001
                 ; 0001 00AE     }
                 ; 0001 00AF     return 0;
                 _0x2000D:
000626 e0e0      	LDI  R30,LOW(0)
000627 e0f0      	LDI  R31,HIGH(0)
000628 940c 08bb 	JMP  _0x20A0001
                 ; 0001 00B0 }
                 ;
                 ;int ModbusUartPutString(char *s, unsigned int count)
                 ; 0001 00B3 {
                 _ModbusUartPutString:
                 ; 0001 00B4     int i;
                 ; 0001 00B5     for(i = 0; i < count; i++)
00062a 931a      	ST   -Y,R17
00062b 930a      	ST   -Y,R16
                 ;	*s -> Y+4
                 ;	count -> Y+2
                 ;	i -> R16,R17
                +
00062c e000     +LDI R16 , LOW ( 0 )
00062d e010     +LDI R17 , HIGH ( 0 )
                 	__GETWRN 16,17,0
                 _0x20015:
00062e 81ea      	LDD  R30,Y+2
00062f 81fb      	LDD  R31,Y+2+1
000630 170e      	CP   R16,R30
000631 071f      	CPC  R17,R31
000632 f468      	BRSH _0x20016
                 ; 0001 00B6     {
                 ; 0001 00B7         if(ModbusUartPutChar(s[i]) == 0)
000633 01f8      	MOVW R30,R16
000634 81ac      	LDD  R26,Y+4
000635 81bd      	LDD  R27,Y+4+1
000636 0fae      	ADD  R26,R30
000637 1fbf      	ADC  R27,R31
000638 91ec      	LD   R30,X
000639 93ea      	ST   -Y,R30
00063a dfb6      	RCALL _ModbusUartPutChar
00063b 9730      	SBIW R30,0
00063c f019      	BREQ _0x20016
                 ; 0001 00B8         {
                 ; 0001 00B9             break;
                 ; 0001 00BA         }
                 ; 0001 00BB     }
                +
00063d 5f0f     +SUBI R16 , LOW ( - 1 )
00063e 4f1f     +SBCI R17 , HIGH ( - 1 )
                 	__ADDWRN 16,17,1
00063f cfee      	RJMP _0x20015
                 _0x20016:
                 ; 0001 00BC     return i;
000640 01f8      	MOVW R30,R16
000641 8119      	LDD  R17,Y+1
000642 8108      	LDD  R16,Y+0
000643 c083      	RJMP _0x20A0004
                 ; 0001 00BD }
                 ;/*****************************************************
                 ;File       : servoi.c
                 ;Last change: 05/23/2014
                 ;Comments   : servoi rade;
                 ;            Treba dodati pracenje kretanja i detekciju zaglavljivanja
                 ;            Odglavljivanje
                 ;*****************************************************/
                 ;
                 ;#include <mega128.h>
                 	#ifndef __SLEEP_DEFINED__
                 	#endif
                 ;#include "modbus_slave.h"
                 ;#include <stdlib.h>
                 ;#include <stdio.h>
                 ;#include <delay.h>
                 ;#include <servoi.h>
                 ;#include <inicijalizacija.h>
                 ;#include <uart0.h>
                 ;
                 ;
                 ;/****************Lokalne prom****************/
                 ;unsigned char brzina_servo_H, brzina_servo_L, ugao_servo_H, ugao_servo_L;
                 ;unsigned char sum=0;
                 ;unsigned char checksum=0;
                 ;char greska;
                 ;char IdServoGreska;
                 ;char paket1, paket2, paket4, paket6, moving, paket7;
                 ;bit upisao = 0;
                 ;
                 ;/*************FUNKCIJE POTREBNE ZA RAD SERVOA*************/
                 ;void prijem_paketa (void)
                 ; 0002 001E {
                 
                 	.CSEG
                 _prijem_paketa:
                 ; 0002 001F     paket1=getchar();
000644 940e 09de 	CALL SUBOPT_0x26
                 ; 0002 0020     paket2=getchar();
                 ; 0002 0021     IdServoGreska=getchar();
                 ; 0002 0022     paket4=getchar();
                 ; 0002 0023     greska=getchar();
                 ; 0002 0024     paket6=getchar();
000646 93e0 0651 	STS  _paket6,R30
                 ; 0002 0025 }
000648 9508      	RET
                 ;
                 ;void prijem_paketaMoving(void)
                 ; 0002 0028 {
                 _prijem_paketaMoving:
                 ; 0002 0029     paket1=getchar();
000649 940e 09de 	CALL SUBOPT_0x26
                 ; 0002 002A     paket2=getchar();
                 ; 0002 002B     IdServoGreska=getchar();
                 ; 0002 002C     paket4=getchar();
                 ; 0002 002D     greska=getchar();
                 ; 0002 002E     moving=getchar();
00064b 93e0 0652 	STS  _moving,R30
                 ; 0002 002F     paket7=getchar();
00064d d0e9      	RCALL _getchar
00064e 93e0 0653 	STS  _paket7,R30
                 ; 0002 0030 }
000650 9508      	RET
                 ;
                 ;void blokiranje_predaje (void)                        //funkcija koja blokira predaju u trenutku kada
                 ; 0002 0033 {                                                      // posaljemo ceo paket
                 _blokiranje_predaje:
                 ; 0002 0034     while ( !( UCSR0A & (1<<TXC)) )   ;    //kada se posalje ceo paket onda se bit 6 registra UCSRA
                 _0x40003:
000651 b1eb      	IN   R30,0xB
000652 e0f0      	LDI  R31,0
000653 74e0      	ANDI R30,LOW(0x40)
000654 f3e1      	BREQ _0x40003
                 ; 0002 0035     UCSR0B.3=0;                            // setuje na 1, potom se UCSRB.3 stavlja na 0, a to je bit koji
000655 9853      	CBI  0xA,3
                 ; 0002 0036     UCSR0A.6=1;                            //iskljuci TxD i taj pin pinovo postaje PD1, a on je inicijalizovan
000656 9a5e      	SBI  0xB,6
                 ; 0002 0037 }
000657 9508      	RET
                 ;
                 ;void oslobadjanje_predaje (void)                 //proizvodjaca mikrokontrolera (datasheet 148 strana)
                 ; 0002 003A {
                 _oslobadjanje_predaje:
                 ; 0002 003B     UCSR0B.3=1;                            //TxD se opet ukljucuje tako sto se UCSRB.3 bit setuje
000658 9a53      	SBI  0xA,3
                 ; 0002 003C }
000659 9508      	RET
                 ;                                                 //proizvodjaca mikrokontrolera (datasheet 148 strana)
                 ;void oslobadjanje_prijema (void)
                 ; 0002 003F {
                 _oslobadjanje_prijema:
                 ; 0002 0040     UCSR0B.4=1;                         // bit koji kontrolise oslobadjanje i blokiranje prijema
00065a 9a54      	SBI  0xA,4
                 ; 0002 0041 }
00065b 9508      	RET
                 ;
                 ;void blokiranje_prijema (void)
                 ; 0002 0044 {
                 _blokiranje_prijema:
                 ; 0002 0045     UCSR0B.4=0;
00065c 9854      	CBI  0xA,4
                 ; 0002 0046 }
00065d 9508      	RET
                 ;
                 ;/*********************FUNKCIJE SERVOI*********************/
                 ;
                 ;void servo_func(unsigned int servo)
                 ; 0002 004B {
                 _servo_func:
                 ; 0002 004C     short pozicija, brzina;
                 ; 0002 004D 
                 ; 0002 004E     ModbusGetRegister(POZICIJA_SERVO_R, &pozicija);
00065e 940e 0b8b 	CALL __SAVELOCR4
                 ;	servo -> Y+4
                 ;	pozicija -> R16,R17
                 ;	brzina -> R18,R19
000660 940e 09f4 	CALL SUBOPT_0x27
000662 b7ed      	IN   R30,SPL
000663 b7fe      	IN   R31,SPH
000664 9731      	SBIW R30,1
000665 93fa      	ST   -Y,R31
000666 93ea      	ST   -Y,R30
000667 931f      	PUSH R17
000668 930f      	PUSH R16
000669 940e 0165 	CALL _ModbusGetRegister
00066b 910f      	POP  R16
00066c 911f      	POP  R17
                 ; 0002 004F 
                 ; 0002 0050     ugao_servo_H=(char)(pozicija>>8);
00066d 01f8      	MOVW R30,R16
00066e 940e 0a7a 	CALL __ASRW8
000670 93e0 0648 	STS  _ugao_servo_H,R30
                 ; 0002 0051     ugao_servo_L=(char)(pozicija&0x00FF);
000672 01f8      	MOVW R30,R16
000673 93e0 0649 	STS  _ugao_servo_L,R30
                 ; 0002 0052 
                 ; 0002 0053     ModbusGetRegister(BRZINA_SERVO_R, &brzina);
000675 940e 09f9 	CALL SUBOPT_0x28
000677 b7ed      	IN   R30,SPL
000678 b7fe      	IN   R31,SPH
000679 9731      	SBIW R30,1
00067a 93fa      	ST   -Y,R31
00067b 93ea      	ST   -Y,R30
00067c 933f      	PUSH R19
00067d 932f      	PUSH R18
00067e 940e 0165 	CALL _ModbusGetRegister
000680 912f      	POP  R18
000681 913f      	POP  R19
                 ; 0002 0054 
                 ; 0002 0055     brzina_servo_H=(char)(brzina>>8);
000682 01f9      	MOVW R30,R18
000683 940e 0a7a 	CALL __ASRW8
000685 93e0 0646 	STS  _brzina_servo_H,R30
                 ; 0002 0056     brzina_servo_L=(char)(brzina&0x00FF);
000687 01f9      	MOVW R30,R18
000688 93e0 0647 	STS  _brzina_servo_L,R30
                 ; 0002 0057 
                 ; 0002 0058     sum=0x28 + ID1 + brzina_servo_H + brzina_servo_L + ugao_servo_H + ugao_servo_L;          ///suma iinfo=2xStart+lenght+iw+add
00068a 91e0 0646 	LDS  R30,_brzina_servo_H
00068c e0f0      	LDI  R31,0
00068d 96b9      	ADIW R30,41
00068e 01df      	MOVW R26,R30
00068f 91e0 0647 	LDS  R30,_brzina_servo_L
000691 e0f0      	LDI  R31,0
000692 0fae      	ADD  R26,R30
000693 1fbf      	ADC  R27,R31
000694 91e0 0648 	LDS  R30,_ugao_servo_H
000696 e0f0      	LDI  R31,0
000697 0fae      	ADD  R26,R30
000698 1fbf      	ADC  R27,R31
000699 91e0 0649 	LDS  R30,_ugao_servo_L
00069b e0f0      	LDI  R31,0
00069c 0fea      	ADD  R30,R26
00069d 940e 09fe 	CALL SUBOPT_0x29
                 ; 0002 0059     checksum=~sum;
                 ; 0002 005A 
                 ; 0002 005B     blokiranje_prijema();
                 ; 0002 005C     smer485Servo = 1;
                 ; 0002 005D     oslobadjanje_predaje();
                 ; 0002 005E 
                 ; 0002 005F     putchar(START);
                 ; 0002 0060     putchar(START);
                 ; 0002 0061     putchar(ID1);
00069f e0e1      	LDI  R30,LOW(1)
0006a0 93ea      	ST   -Y,R30
0006a1 940e 08b7 	CALL _putchar
                 ; 0002 0062     putchar(LENGTH);
0006a3 e0e7      	LDI  R30,LOW(7)
0006a4 93ea      	ST   -Y,R30
0006a5 940e 08b7 	CALL _putchar
                 ; 0002 0063     putchar(INSTR_WRITE);
0006a7 e0e3      	LDI  R30,LOW(3)
0006a8 93ea      	ST   -Y,R30
0006a9 940e 08b7 	CALL _putchar
                 ; 0002 0064     putchar(ADDRESS);
0006ab e1ee      	LDI  R30,LOW(30)
0006ac 93ea      	ST   -Y,R30
0006ad 940e 08b7 	CALL _putchar
                 ; 0002 0065     putchar(ugao_servo_L);
0006af 91e0 0649 	LDS  R30,_ugao_servo_L
0006b1 93ea      	ST   -Y,R30
0006b2 940e 08b7 	CALL _putchar
                 ; 0002 0066     putchar(ugao_servo_H);
0006b4 91e0 0648 	LDS  R30,_ugao_servo_H
0006b6 93ea      	ST   -Y,R30
0006b7 940e 08b7 	CALL _putchar
                 ; 0002 0067     putchar(brzina_servo_L);
0006b9 91e0 0647 	LDS  R30,_brzina_servo_L
0006bb 93ea      	ST   -Y,R30
0006bc 940e 08b7 	CALL _putchar
                 ; 0002 0068     putchar(brzina_servo_H);
0006be 91e0 0646 	LDS  R30,_brzina_servo_H
0006c0 940e 0a10 	CALL SUBOPT_0x2A
                 ; 0002 0069     putchar(checksum);
                 ; 0002 006A 
                 ; 0002 006B     blokiranje_predaje();
                 ; 0002 006C     smer485Servo = 0;
                 ; 0002 006D     oslobadjanje_prijema();
                 ; 0002 006E 
                 ; 0002 006F     prijem_paketa();
0006c2 df81      	RCALL _prijem_paketa
                 ; 0002 0070 
                 ; 0002 0071     oslobadjanje_predaje();
0006c3 df94      	RCALL _oslobadjanje_predaje
                 ; 0002 0072     smer485Servo = 1;
0006c4 9a95      	SBI  0x12,5
                 ; 0002 0073 }
0006c5 940e 0b90 	CALL __LOADLOCR4
                 _0x20A0004:
0006c7 9626      	ADIW R28,6
0006c8 9508      	RET
                 ;
                 ;/*******************MOVING****************************/
                 ;void servo_moving_func(int IdServoa) //slanje poruke za dobijanja stanja moving
                 ; 0002 0077 {
                 _servo_moving_func:
                 ; 0002 0078     sum = IdServoa+LENGTH_MOV+INSTR_WRITE_READ+ADDRESS_MOV+LENGTH_MOV_READ;//suma iinfo=2xStart+id+lenght+iw+add
                 ;	IdServoa -> Y+0
0006c9 81e8      	LD   R30,Y
0006ca 81f9      	LDD  R31,Y+1
0006cb 96f5      	ADIW R30,53
0006cc 940e 09fe 	CALL SUBOPT_0x29
                 ; 0002 0079     checksum=~sum;
                 ; 0002 007A 
                 ; 0002 007B     blokiranje_prijema();
                 ; 0002 007C     smer485Servo = 1;
                 ; 0002 007D     oslobadjanje_predaje();
                 ; 0002 007E 
                 ; 0002 007F     putchar(START);
                 ; 0002 0080     putchar(START);
                 ; 0002 0081     putchar(IdServoa);
0006ce 81e8      	LD   R30,Y
0006cf 93ea      	ST   -Y,R30
0006d0 940e 08b7 	CALL _putchar
                 ; 0002 0082     putchar(LENGTH_MOV);
0006d2 e0e4      	LDI  R30,LOW(4)
0006d3 93ea      	ST   -Y,R30
0006d4 940e 08b7 	CALL _putchar
                 ; 0002 0083     putchar(INSTR_WRITE_READ);
0006d6 e0e2      	LDI  R30,LOW(2)
0006d7 93ea      	ST   -Y,R30
0006d8 940e 08b7 	CALL _putchar
                 ; 0002 0084     putchar(ADDRESS_MOV);
0006da e2ee      	LDI  R30,LOW(46)
0006db 93ea      	ST   -Y,R30
0006dc 940e 08b7 	CALL _putchar
                 ; 0002 0085     putchar(LENGTH_MOV_READ);
0006de e0e1      	LDI  R30,LOW(1)
0006df 940e 0a10 	CALL SUBOPT_0x2A
                 ; 0002 0086     putchar(checksum);
                 ; 0002 0087 
                 ; 0002 0088     blokiranje_predaje();
                 ; 0002 0089     smer485Servo = 0;
                 ; 0002 008A     oslobadjanje_prijema();
                 ; 0002 008B 
                 ; 0002 008C     prijem_paketaMoving();
0006e1 df67      	RCALL _prijem_paketaMoving
                 ; 0002 008D 
                 ; 0002 008E     oslobadjanje_predaje();
0006e2 df75      	RCALL _oslobadjanje_predaje
                 ; 0002 008F     smer485Servo = 1;
0006e3 9a95      	SBI  0x12,5
                 ; 0002 0090 }
0006e4 940c 0776 	JMP  _0x20A0002
                 ;
                 ;void servo_detect_moving_func(unsigned int parametar)
                 ; 0002 0093 {
                 _servo_detect_moving_func:
                 ; 0002 0094     servo_moving_func(1);
                 ;	parametar -> Y+0
0006e6 940e 09f4 	CALL SUBOPT_0x27
0006e8 dfe0      	RCALL _servo_moving_func
                 ; 0002 0095 
                 ; 0002 0096     if(moving==0x01 && upisao == 0)
0006e9 91a0 0652 	LDS  R26,_moving
0006eb 30a1      	CPI  R26,LOW(0x1)
0006ec f429      	BRNE _0x4001D
0006ed e0a0      	LDI  R26,0
0006ee fc21      	SBRC R2,1
0006ef e0a1      	LDI  R26,1
0006f0 30a0      	CPI  R26,LOW(0x0)
0006f1 f009      	BREQ _0x4001E
                 _0x4001D:
0006f2 c004      	RJMP _0x4001C
                 _0x4001E:
                 ; 0002 0097     {
                 ; 0002 0098         ModbusSetCoil(SERVO_MOVING,moving);
0006f3 940e 0a1d 	CALL SUBOPT_0x2B
                 ; 0002 0099         upisao = 1;
0006f5 9468      	SET
0006f6 c007      	RJMP _0x40021
                 ; 0002 009A     }
                 ; 0002 009B     else if(moving == 0)
                 _0x4001C:
0006f7 91e0 0652 	LDS  R30,_moving
0006f9 30e0      	CPI  R30,0
0006fa f421      	BRNE _0x40020
                 ; 0002 009C     {
                 ; 0002 009D         ModbusSetCoil(SERVO_MOVING,moving);
0006fb 940e 0a1d 	CALL SUBOPT_0x2B
                 ; 0002 009E         upisao = 0;
0006fd 94e8      	CLT
                 _0x40021:
0006fe f821      	BLD  R2,1
                 ; 0002 009F     }
                 ; 0002 00A0 }
                 _0x40020:
0006ff 940c 0776 	JMP  _0x20A0002
                 ;/*****************************************************
                 ;File       : uart0.h
                 ;Last change: 05/22/2014
                 ;Comments   :
                 ;*****************************************************/
                 ;
                 ;#include <uart0.h>
                 ;#include <mega128.h>
                 	#ifndef __SLEEP_DEFINED__
                 	#endif
                 ;#include <delay.h>
                 ;
                 ;
                 ;#ifndef RXB8
                 ;#define RXB8 1
                 ;#endif
                 ;
                 ;#ifndef TXB8
                 ;#define TXB8 0
                 ;#endif
                 ;
                 ;#ifndef UPE
                 ;#define UPE 2
                 ;#endif
                 ;
                 ;#ifndef DOR
                 ;#define DOR 3
                 ;#endif
                 ;
                 ;#ifndef FE
                 ;#define FE 4
                 ;#endif
                 ;
                 ;#ifndef UDRE
                 ;#define UDRE 5
                 ;#endif
                 ;
                 ;#ifndef RXC
                 ;#define RXC 7
                 ;
                 ;#define TXC 6
                 ;#endif
                 ;
                 ;
                 ;/*********************USART0*************************/
                 ;
                 ;// USART0 Receiver buffer
                 ;#define RX_BUFFER_SIZE0 16
                 ;char rx_buffer0[RX_BUFFER_SIZE0];
                 ;
                 ;#if RX_BUFFER_SIZE0 <= 256
                 ;unsigned char rx_wr_index0,rx_rd_index0,rx_counter0;
                 ;#else
                 ;unsigned int rx_wr_index0,rx_rd_index0,rx_counter0;
                 ;#endif
                 ;
                 ;// This flag is set on USART0 Receiver buffer overflow
                 ;bit rx_buffer_overflow0;
                 ;
                 ;// USART0 Receiver interrupt service routine
                 ;interrupt [USART0_RXC] void usart0_rx_isr(void)
                 ; 0003 003C {
                 
                 	.CSEG
                 _usart0_rx_isr:
000701 93aa      	ST   -Y,R26
000702 93ba      	ST   -Y,R27
000703 93ea      	ST   -Y,R30
000704 93fa      	ST   -Y,R31
000705 b7ef      	IN   R30,SREG
000706 93ea      	ST   -Y,R30
                 ; 0003 003D char status,data;
                 ; 0003 003E status=UCSR0A;
000707 931a      	ST   -Y,R17
000708 930a      	ST   -Y,R16
                 ;	status -> R17
                 ;	data -> R16
000709 b11b      	IN   R17,11
                 ; 0003 003F data=UDR0;
00070a b10c      	IN   R16,12
                 ; 0003 0040 if ((status & (FRAMING_ERROR | PARITY_ERROR | DATA_OVERRUN))==0)
00070b 940e 09c5 	CALL SUBOPT_0x23
00070d e1ec      	LDI  R30,LOW(28)
00070e e0f0      	LDI  R31,HIGH(28)
00070f 23ea      	AND  R30,R26
000710 23fb      	AND  R31,R27
000711 9730      	SBIW R30,0
000712 f4d9      	BRNE _0x60003
                 ; 0003 0041    {
                 ; 0003 0042    rx_buffer0[rx_wr_index0++]=data;
000713 91e0 0664 	LDS  R30,_rx_wr_index0
000715 5fef      	SUBI R30,-LOW(1)
000716 93e0 0664 	STS  _rx_wr_index0,R30
000718 940e 0a26 	CALL SUBOPT_0x2C
00071a 8300      	ST   Z,R16
                 ; 0003 0043 #if RX_BUFFER_SIZE0 == 256
                 ; 0003 0044    // special case for receiver buffer size=256
                 ; 0003 0045    if (++rx_counter0 == 0)
                 ; 0003 0046       {
                 ; 0003 0047 #else
                 ; 0003 0048    if (rx_wr_index0 == RX_BUFFER_SIZE0) rx_wr_index0=0;
00071b 91a0 0664 	LDS  R26,_rx_wr_index0
00071d 31a0      	CPI  R26,LOW(0x10)
00071e f419      	BRNE _0x60004
00071f e0e0      	LDI  R30,LOW(0)
000720 93e0 0664 	STS  _rx_wr_index0,R30
                 ; 0003 0049    if (++rx_counter0 == RX_BUFFER_SIZE0)
                 _0x60004:
000722 91a0 0666 	LDS  R26,_rx_counter0
000724 5faf      	SUBI R26,-LOW(1)
000725 93a0 0666 	STS  _rx_counter0,R26
000727 31a0      	CPI  R26,LOW(0x10)
000728 f429      	BRNE _0x60005
                 ; 0003 004A       {
                 ; 0003 004B       rx_counter0=0;
000729 e0e0      	LDI  R30,LOW(0)
00072a 93e0 0666 	STS  _rx_counter0,R30
                 ; 0003 004C #endif
                 ; 0003 004D       rx_buffer_overflow0=1;
00072c 9468      	SET
00072d f822      	BLD  R2,2
                 ; 0003 004E       }
                 ; 0003 004F    }
                 _0x60005:
                 ; 0003 0050 }
                 _0x60003:
00072e 9109      	LD   R16,Y+
00072f 9119      	LD   R17,Y+
000730 91e9      	LD   R30,Y+
000731 bfef      	OUT  SREG,R30
000732 91f9      	LD   R31,Y+
000733 91e9      	LD   R30,Y+
000734 91b9      	LD   R27,Y+
000735 91a9      	LD   R26,Y+
000736 9518      	RETI
                 ;
                 ;#ifndef _DEBUG_TERMINAL_IO_
                 ;// Get a character from the USART0 Receiver buffer
                 ;#define _ALTERNATE_GETCHAR_
                 ;#pragma used+
                 ;char getchar(void)
                 ; 0003 0057 {
                 _getchar:
                 ; 0003 0058 char data;
                 ; 0003 0059 
                 ; 0003 005A while (rx_counter0==0);
000737 931a      	ST   -Y,R17
                 ;	data -> R17
                 _0x60006:
000738 91e0 0666 	LDS  R30,_rx_counter0
00073a 30e0      	CPI  R30,0
00073b f3e1      	BREQ _0x60006
                 ; 0003 005B 
                 ; 0003 005C data=rx_buffer0[rx_rd_index0++];
00073c 91e0 0665 	LDS  R30,_rx_rd_index0
00073e 5fef      	SUBI R30,-LOW(1)
00073f 93e0 0665 	STS  _rx_rd_index0,R30
000741 940e 0a26 	CALL SUBOPT_0x2C
000743 8110      	LD   R17,Z
                 ; 0003 005D #if RX_BUFFER_SIZE0 != 256
                 ; 0003 005E if (rx_rd_index0 == RX_BUFFER_SIZE0) rx_rd_index0=0;
000744 91a0 0665 	LDS  R26,_rx_rd_index0
000746 31a0      	CPI  R26,LOW(0x10)
000747 f419      	BRNE _0x60009
000748 e0e0      	LDI  R30,LOW(0)
000749 93e0 0665 	STS  _rx_rd_index0,R30
                 ; 0003 005F #endif
                 ; 0003 0060 #asm("cli")
                 _0x60009:
00074b 94f8      	cli
                 ; 0003 0061 --rx_counter0;
00074c 91e0 0666 	LDS  R30,_rx_counter0
00074e 50e1      	SUBI R30,LOW(1)
00074f 93e0 0666 	STS  _rx_counter0,R30
                 ; 0003 0062 #asm("sei")
000751 9478      	sei
                 ; 0003 0063 return data;
000752 2fe1      	MOV  R30,R17
                 _0x20A0003:
000753 9119      	LD   R17,Y+
000754 9508      	RET
                 ; 0003 0064 }
                 ;#pragma used-
                 ;#endif
                 ;/*****************************************************
                 ;This program was produced by the
                 ;CodeWizardAVR V2.03.4 Standard
                 ;Automatic Program Generator
                 ; Copyright 1998-2008 Pavel Haiduc, HP InfoTech s.r.l.
                 ;http://www.hpinfotech.com
                 ;
                 ;Project : AktuatorskaMail2014
                 ;Version : 6.1
                 ;Date    : 05/26/2014
                 ;Author  : Srdjan Stankovic
                 ;Company : Memristor
                 ;Comments: ---RX-24F servo jedan; Ide na ugao; Na Coil proveravam da li je u pokretu
                 ;            ---Ima 6senzora daljine
                 ;            ---pracenje naopna baterije
                 ;
                 ;Chip type           : ATmega128
                 ;Program type        : Application
                 ;Clock frequency     : 11.059000 MHz
                 ;Memory model        : Small
                 ;External RAM size   : 0
                 ;Data Stack size     : 1024
                 ;*****************************************************/
                 ;
                 ;#include <mega128.h>
                 	#ifndef __SLEEP_DEFINED__
                 	#endif
                 ;#include "modbus_slave.h"
                 ;#include <stdlib.h>
                 ;#include <delay.h>
                 ;#include <servoi.h>
                 ;#include <inicijalizacija.h>
                 ;#include <uart0.h>
                 ;#include <stdio.h>
                 ;
                 ;/***********************ADC***********************/
                 ;#define ADC_VREF_TYPE 0x00
                 ;
                 ;// Read the AD conversion result
                 ;unsigned int read_adc(unsigned char adc_input)
                 ; 0004 0027 {
                 
                 	.CSEG
                 _read_adc:
                 ; 0004 0028 ADMUX=adc_input | (ADC_VREF_TYPE & 0xff);
                 ;	adc_input -> Y+0
000755 940e 092d 	CALL SUBOPT_0x10
000757 b9e7      	OUT  0x7,R30
                 ; 0004 0029 // Delay needed for the stabilization of the ADC input voltage
                 ; 0004 002A delay_us(10);
                +
000758 e285     +LDI R24 , LOW ( 37 )
                +__DELAY_USB_LOOP :
000759 958a     +DEC R24
00075a f7f1     +BRNE __DELAY_USB_LOOP
                 	__DELAY_USB 37
                 ; 0004 002B // Start the AD conversion
                 ; 0004 002C ADCSRA|=0x40;
00075b 940e 0a2b 	CALL SUBOPT_0x2D
00075d 64e0      	ORI  R30,0x40
00075e b9e6      	OUT  0x6,R30
                 ; 0004 002D // Wait for the AD conversion to complete
                 ; 0004 002E while ((ADCSRA & 0x10)==0);
                 _0x80003:
00075f 940e 0a2b 	CALL SUBOPT_0x2D
000761 71e0      	ANDI R30,LOW(0x10)
000762 f3e1      	BREQ _0x80003
                 ; 0004 002F ADCSRA|=0x10;
000763 940e 0a2b 	CALL SUBOPT_0x2D
000765 61e0      	ORI  R30,0x10
000766 b9e6      	OUT  0x6,R30
                 ; 0004 0030 return ADCW;
000767 b1e4      	IN   R30,0x4
000768 b1f5      	IN   R31,0x4+1
000769 940c 08bb 	JMP  _0x20A0001
                 ; 0004 0031 }
                 ;
                 ;/*****************KONTROLA SMERA MAX485*****************/
                 ;void DirPin(int dir)
                 ; 0004 0035 {
                 _DirPin:
                 ; 0004 0036     if(dir==1)
                 ;	dir -> Y+0
00076b 81a8      	LD   R26,Y
00076c 81b9      	LDD  R27,Y+1
00076d 9711      	SBIW R26,1
00076e f411      	BRNE _0x80006
                 ; 0004 0037     {
                 ; 0004 0038         PORTD.4=1;
00076f 9a94      	SBI  0x12,4
                 ; 0004 0039     }
                 ; 0004 003A     else if(dir==0)
000770 c005      	RJMP _0x80009
                 _0x80006:
000771 81e8      	LD   R30,Y
000772 81f9      	LDD  R31,Y+1
000773 9730      	SBIW R30,0
000774 f409      	BRNE _0x8000A
                 ; 0004 003B     {
                 ; 0004 003C         PORTD.4=0;
000775 9894      	CBI  0x12,4
                 ; 0004 003D     }
                 ; 0004 003E }
                 _0x8000A:
                 _0x80009:
                 _0x20A0002:
000776 9622      	ADIW R28,2
000777 9508      	RET
                 ;
                 ;void main(void)
                 ; 0004 0041 {
                 _main:
                 ; 0004 0042     int vbat;
                 ; 0004 0043 // Input/Output Ports initialization
                 ; 0004 0044 // Port A initialization
                 ; 0004 0045 // Func7=In Func6=In Func5=In Func4=Out Func3=In Func2=In Func1=In Func0=In
                 ; 0004 0046 // State7=T State6=T State5=T State4=0 State3=T State2=T State1=T State0=T
                 ; 0004 0047 PORTA=0x10;
                 ;	vbat -> R16,R17
000778 e1e0      	LDI  R30,LOW(16)
000779 bbeb      	OUT  0x1B,R30
                 ; 0004 0048 DDRA=0x10;
00077a bbea      	OUT  0x1A,R30
                 ; 0004 0049 
                 ; 0004 004A // Port B initialization
                 ; 0004 004B // Func7=In Func6=In Func5=In Func4=In Func3=In Func2=In Func1=In Func0=In
                 ; 0004 004C // State7=T State6=T State5=T State4=T State3=T State2=T State1=T State0=T
                 ; 0004 004D PORTB=0x00;
00077b e0e0      	LDI  R30,LOW(0)
00077c bbe8      	OUT  0x18,R30
                 ; 0004 004E DDRB=0x00;
00077d bbe7      	OUT  0x17,R30
                 ; 0004 004F 
                 ; 0004 0050 // Port C initialization
                 ; 0004 0051 // Func7=In Func6=In Func5=In Func4=In Func3=In Func2=In Func1=In Func0=In
                 ; 0004 0052 // State7=T State6=T State5=T State4=T State3=T State2=T State1=T State0=T
                 ; 0004 0053 PORTC=0x00;
00077e bbe5      	OUT  0x15,R30
                 ; 0004 0054 DDRC=0x00;
00077f bbe4      	OUT  0x14,R30
                 ; 0004 0055 
                 ; 0004 0056 // Port D initialization
                 ; 0004 0057 // Func7=In Func6=In Func5=Out Func4=Out Func3=In Func2=In Func1=In Func0=In
                 ; 0004 0058 // State7=T State6=T State5=0 State4=0 State3=T State2=T State1=T State0=T
                 ; 0004 0059 PORTD=0x00;
000780 bbe2      	OUT  0x12,R30
                 ; 0004 005A DDRD=0x30;
000781 e3e0      	LDI  R30,LOW(48)
000782 bbe1      	OUT  0x11,R30
                 ; 0004 005B 
                 ; 0004 005C // Port E initialization
                 ; 0004 005D // Func7=Out Func6=In Func5=In Func4=In Func3=In Func2=In Func1=In Func0=In
                 ; 0004 005E // State7=0 State6=T State5=T State4=T State3=T State2=T State1=T State0=T
                 ; 0004 005F PORTE=0x00;
000783 e0e0      	LDI  R30,LOW(0)
000784 b9e3      	OUT  0x3,R30
                 ; 0004 0060 DDRE=0x80;
000785 e8e0      	LDI  R30,LOW(128)
000786 b9e2      	OUT  0x2,R30
                 ; 0004 0061 
                 ; 0004 0062 // Port F initialization
                 ; 0004 0063 // Func7=In Func6=In Func5=In Func4=In Func3=In Func2=In Func1=In Func0=In
                 ; 0004 0064 // State7=T State6=T State5=T State4=T State3=T State2=T State1=T State0=T
                 ; 0004 0065 PORTF=0x00;
000787 e0e0      	LDI  R30,LOW(0)
000788 93e0 0062 	STS  98,R30
                 ; 0004 0066 DDRF=0x00;
00078a 93e0 0061 	STS  97,R30
                 ; 0004 0067 
                 ; 0004 0068 // Port G initialization
                 ; 0004 0069 // Func4=In Func3=In Func2=In Func1=In Func0=In
                 ; 0004 006A // State4=T State3=T State2=T State1=T State0=T
                 ; 0004 006B PORTG=0x00;
00078c 93e0 0065 	STS  101,R30
                 ; 0004 006C DDRG=0x00;
00078e 93e0 0064 	STS  100,R30
                 ; 0004 006D 
                 ; 0004 006E // Timer/Counter 0 initialization
                 ; 0004 006F // Clock source: System Clock
                 ; 0004 0070 // Clock value: Timer 0 Stopped
                 ; 0004 0071 // Mode: Normal top=FFh
                 ; 0004 0072 // OC0 output: Disconnected
                 ; 0004 0073 ASSR=0x00;
000790 bfe0      	OUT  0x30,R30
                 ; 0004 0074 TCCR0=0x00;
000791 bfe3      	OUT  0x33,R30
                 ; 0004 0075 TCNT0=0x00;
000792 bfe2      	OUT  0x32,R30
                 ; 0004 0076 OCR0=0x00;
000793 bfe1      	OUT  0x31,R30
                 ; 0004 0077 
                 ; 0004 0078 // Timer/Counter 1 initialization
                 ; 0004 0079 // Clock source: System Clock
                 ; 0004 007A // Clock value: 11059.000 kHz
                 ; 0004 007B // Mode: CTC top=OCR1A
                 ; 0004 007C // OC1A output: Discon.
                 ; 0004 007D // OC1B output: Discon.
                 ; 0004 007E // OC1C output: Discon.
                 ; 0004 007F // Noise Canceler: Off
                 ; 0004 0080 // Input Capture on Falling Edge
                 ; 0004 0081 // Timer 1 Overflow Interrupt: Off
                 ; 0004 0082 // Input Capture Interrupt: Off
                 ; 0004 0083 // Compare A Match Interrupt: On
                 ; 0004 0084 // Compare B Match Interrupt: Off
                 ; 0004 0085 // Compare C Match Interrupt: Off
                 ; 0004 0086 TCCR1A=0x00;
000794 bdef      	OUT  0x2F,R30
                 ; 0004 0087 TCCR1B=0x09;
000795 e0e9      	LDI  R30,LOW(9)
000796 940e 0a2e 	CALL SUBOPT_0x2E
                 ; 0004 0088 TCNT1H=0x00;
                 ; 0004 0089 TCNT1L=0x00;
                 ; 0004 008A ICR1H=0x00;
                 ; 0004 008B ICR1L=0x00;
                 ; 0004 008C OCR1AH=0x2B;
000798 e2eb      	LDI  R30,LOW(43)
000799 bdeb      	OUT  0x2B,R30
                 ; 0004 008D OCR1AL=0x33;
00079a e3e3      	LDI  R30,LOW(51)
00079b 940e 0a35 	CALL SUBOPT_0x2F
                 ; 0004 008E OCR1BH=0x00;
                 ; 0004 008F OCR1BL=0x00;
                 ; 0004 0090 OCR1CH=0x00;
                 ; 0004 0091 OCR1CL=0x00;
                 ; 0004 0092 
                 ; 0004 0093 // Timer/Counter 1 initialization
                 ; 0004 0094 // Clock source: System Clock
                 ; 0004 0095 // Clock value: Timer 1 Stopped
                 ; 0004 0096 // Mode: Normal top=FFFFh
                 ; 0004 0097 // OC1A output: Discon.
                 ; 0004 0098 // OC1B output: Discon.
                 ; 0004 0099 // OC1C output: Discon.
                 ; 0004 009A // Noise Canceler: Off
                 ; 0004 009B // Input Capture on Falling Edge
                 ; 0004 009C // Timer 1 Overflow Interrupt: Off
                 ; 0004 009D // Input Capture Interrupt: Off
                 ; 0004 009E // Compare A Match Interrupt: Off
                 ; 0004 009F // Compare B Match Interrupt: Off
                 ; 0004 00A0 // Compare C Match Interrupt: Off
                 ; 0004 00A1 TCCR1A=0x00;
00079d bdef      	OUT  0x2F,R30
                 ; 0004 00A2 TCCR1B=0x00;
00079e e0e0      	LDI  R30,LOW(0)
00079f 940e 0a2e 	CALL SUBOPT_0x2E
                 ; 0004 00A3 TCNT1H=0x00;
                 ; 0004 00A4 TCNT1L=0x00;
                 ; 0004 00A5 ICR1H=0x00;
                 ; 0004 00A6 ICR1L=0x00;
                 ; 0004 00A7 OCR1AH=0x00;
0007a1 e0e0      	LDI  R30,LOW(0)
0007a2 bdeb      	OUT  0x2B,R30
                 ; 0004 00A8 OCR1AL=0x00;
0007a3 940e 0a35 	CALL SUBOPT_0x2F
                 ; 0004 00A9 OCR1BH=0x00;
                 ; 0004 00AA OCR1BL=0x00;
                 ; 0004 00AB OCR1CH=0x00;
                 ; 0004 00AC OCR1CL=0x00;
                 ; 0004 00AD 
                 ; 0004 00AE // Timer/Counter 2 initialization
                 ; 0004 00AF // Clock source: System Clock
                 ; 0004 00B0 // Clock value: Timer 2 Stopped
                 ; 0004 00B1 // Mode: Normal top=FFh
                 ; 0004 00B2 // OC2 output: Disconnected
                 ; 0004 00B3 TCCR2=0x00;
0007a5 bde5      	OUT  0x25,R30
                 ; 0004 00B4 TCNT2=0x00;
0007a6 e0e0      	LDI  R30,LOW(0)
0007a7 bde4      	OUT  0x24,R30
                 ; 0004 00B5 OCR2=0x00;
0007a8 bde3      	OUT  0x23,R30
                 ; 0004 00B6 
                 ; 0004 00B7 // Timer/Counter 3 initialization
                 ; 0004 00B8 // Clock source: System Clock
                 ; 0004 00B9 // Clock value: Timer 3 Stopped
                 ; 0004 00BA // Mode: Normal top=FFFFh
                 ; 0004 00BB // Noise Canceler: Off
                 ; 0004 00BC // Input Capture on Falling Edge
                 ; 0004 00BD // OC3A output: Discon.
                 ; 0004 00BE // OC3B output: Discon.
                 ; 0004 00BF // OC3C output: Discon.
                 ; 0004 00C0 // Timer 3 Overflow Interrupt: Off
                 ; 0004 00C1 // Input Capture Interrupt: Off
                 ; 0004 00C2 // Compare A Match Interrupt: Off
                 ; 0004 00C3 // Compare B Match Interrupt: Off
                 ; 0004 00C4 // Compare C Match Interrupt: Off
                 ; 0004 00C5 TCCR3A=0x00;
0007a9 93e0 008b 	STS  139,R30
                 ; 0004 00C6 TCCR3B=0x00;
0007ab 93e0 008a 	STS  138,R30
                 ; 0004 00C7 TCNT3H=0x00;
0007ad 93e0 0089 	STS  137,R30
                 ; 0004 00C8 TCNT3L=0x00;
0007af 93e0 0088 	STS  136,R30
                 ; 0004 00C9 ICR3H=0x00;
0007b1 93e0 0081 	STS  129,R30
                 ; 0004 00CA ICR3L=0x00;
0007b3 93e0 0080 	STS  128,R30
                 ; 0004 00CB OCR3AH=0x00;
0007b5 93e0 0087 	STS  135,R30
                 ; 0004 00CC OCR3AL=0x00;
0007b7 93e0 0086 	STS  134,R30
                 ; 0004 00CD OCR3BH=0x00;
0007b9 93e0 0085 	STS  133,R30
                 ; 0004 00CE OCR3BL=0x00;
0007bb 93e0 0084 	STS  132,R30
                 ; 0004 00CF OCR3CH=0x00;
0007bd 93e0 0083 	STS  131,R30
                 ; 0004 00D0 OCR3CL=0x00;
0007bf 93e0 0082 	STS  130,R30
                 ; 0004 00D1 
                 ; 0004 00D2 // External Interrupt(s) initialization
                 ; 0004 00D3 // INT0: Off
                 ; 0004 00D4 // INT1: Off
                 ; 0004 00D5 // INT2: Off
                 ; 0004 00D6 // INT3: Off
                 ; 0004 00D7 // INT4: Off
                 ; 0004 00D8 // INT5: Off
                 ; 0004 00D9 // INT6: Off
                 ; 0004 00DA // INT7: Off
                 ; 0004 00DB EICRA=0x00;
0007c1 93e0 006a 	STS  106,R30
                 ; 0004 00DC EICRB=0x00;
0007c3 bfea      	OUT  0x3A,R30
                 ; 0004 00DD EIMSK=0x00;
0007c4 bfe9      	OUT  0x39,R30
                 ; 0004 00DE 
                 ; 0004 00DF // Timer(s)/Counter(s) Interrupt(s) initialization
                 ; 0004 00E0 TIMSK=0x00;
0007c5 bfe7      	OUT  0x37,R30
                 ; 0004 00E1 ETIMSK=0x00;
0007c6 93e0 007d 	STS  125,R30
                 ; 0004 00E2 
                 ; 0004 00E3 // USART0 initialization
                 ; 0004 00E4 // Communication Parameters: 8 Data, 1 Stop, No Parity
                 ; 0004 00E5 // USART0 Receiver: On
                 ; 0004 00E6 // USART0 Transmitter: On
                 ; 0004 00E7 // USART0 Mode: Asynchronous
                 ; 0004 00E8 // USART0 Baud Rate: 57600
                 ; 0004 00E9 UCSR0A=0x00;
0007c8 b9eb      	OUT  0xB,R30
                 ; 0004 00EA UCSR0B=0x98;
0007c9 e9e8      	LDI  R30,LOW(152)
0007ca b9ea      	OUT  0xA,R30
                 ; 0004 00EB UCSR0C=0x06;
0007cb e0e6      	LDI  R30,LOW(6)
0007cc 93e0 0095 	STS  149,R30
                 ; 0004 00EC UBRR0H=0x00;
0007ce e0e0      	LDI  R30,LOW(0)
0007cf 93e0 0090 	STS  144,R30
                 ; 0004 00ED UBRR0L=0x0B;
0007d1 e0eb      	LDI  R30,LOW(11)
0007d2 b9e9      	OUT  0x9,R30
                 ; 0004 00EE 
                 ; 0004 00EF // ADC initialization
                 ; 0004 00F0 // ADC Clock frequency: 691.188 kHz
                 ; 0004 00F1 // ADC Voltage Reference: AREF pin
                 ; 0004 00F2 ADMUX=ADC_VREF_TYPE & 0xff;
0007d3 e0e0      	LDI  R30,LOW(0)
0007d4 b9e7      	OUT  0x7,R30
                 ; 0004 00F3 ADCSRA=0x84;
0007d5 e8e4      	LDI  R30,LOW(132)
0007d6 b9e6      	OUT  0x6,R30
                 ; 0004 00F4 
                 ; 0004 00F5 // Analog Comparator initialization
                 ; 0004 00F6 // Analog Comparator: Off
                 ; 0004 00F7 // Analog Comparator Input Capture by Timer/Counter 1: Off
                 ; 0004 00F8 ACSR=0x80;
0007d7 e8e0      	LDI  R30,LOW(128)
0007d8 b9e8      	OUT  0x8,R30
                 ; 0004 00F9 SFIOR=0x00;
0007d9 e0e0      	LDI  R30,LOW(0)
0007da bde0      	OUT  0x20,R30
                 ; 0004 00FA 
                 ; 0004 00FB // Global enable interrupts
                 ; 0004 00FC #asm("sei")
0007db 9478      	sei
                 ; 0004 00FD 
                 ; 0004 00FE ModbusSlaveInit(1, DirPin);//ime slave, id
0007dc e0e1      	LDI  R30,LOW(1)
0007dd 93ea      	ST   -Y,R30
0007de e6eb      	LDI  R30,LOW(_DirPin)
0007df e0f7      	LDI  R31,HIGH(_DirPin)
0007e0 93fa      	ST   -Y,R31
0007e1 93ea      	ST   -Y,R30
0007e2 940e 026b 	CALL _ModbusSlaveInit
                 ; 0004 00FF 
                 ; 0004 0100 /********************Dogadjaji Coil**********************************/
                 ; 0004 0101 ModbusSetCoilChangeEvent(SERVO_MOV_CHECK, servo_detect_moving_func);
0007e4 e0e9      	LDI  R30,LOW(9)
0007e5 e0f0      	LDI  R31,HIGH(9)
0007e6 93fa      	ST   -Y,R31
0007e7 93ea      	ST   -Y,R30
0007e8 eee6      	LDI  R30,LOW(_servo_detect_moving_func)
0007e9 e0f6      	LDI  R31,HIGH(_servo_detect_moving_func)
0007ea 93fa      	ST   -Y,R31
0007eb 93ea      	ST   -Y,R30
0007ec 940e 011a 	CALL _ModbusSetCoilChangeEvent
                 ; 0004 0102 
                 ; 0004 0103 /******************Dogadjaji Register*******************************/
                 ; 0004 0104 ModbusSetRegisterChangeEvent(POZICIJA_SERVO_R, servo_func);
0007ee 940e 09f4 	CALL SUBOPT_0x27
0007f0 e5ee      	LDI  R30,LOW(_servo_func)
0007f1 e0f6      	LDI  R31,HIGH(_servo_func)
0007f2 93fa      	ST   -Y,R31
0007f3 93ea      	ST   -Y,R30
0007f4 940e 01ae 	CALL _ModbusSetRegisterChangeEvent
                 ; 0004 0105 
                 ; 0004 0106 while (1)
                 _0x8000D:
                 ; 0004 0107       {
                 ; 0004 0108         ModbusEventDispatcher();
0007f6 940e 04f1 	CALL _ModbusEventDispatcher
                 ; 0004 0109 
                 ; 0004 010A         /************Napon baterije***************/
                 ; 0004 010B         vbat=read_adc(4);
0007f8 e0e4      	LDI  R30,LOW(4)
0007f9 93ea      	ST   -Y,R30
0007fa df5a      	RCALL _read_adc
0007fb 018f      	MOVW R16,R30
                 ; 0004 010C         vbat=10*(kostantaVbat*vbat);
0007fc 01f8      	MOVW R30,R16
0007fd 940e 0a7f 	CALL __CWD1
0007ff 940e 0b0f 	CALL __CDF1
                +
000801 e8ac     +LDI R26 , LOW ( 0x3C6A4A8C )
000802 e4ba     +LDI R27 , HIGH ( 0x3C6A4A8C )
000803 e68a     +LDI R24 , BYTE3 ( 0x3C6A4A8C )
000804 e39c     +LDI R25 , BYTE4 ( 0x3C6A4A8C )
                 	__GETD2N 0x3C6A4A8C
000805 940e 0b3d 	CALL __MULF12
                +
000807 e0a0     +LDI R26 , LOW ( 0x41200000 )
000808 e0b0     +LDI R27 , HIGH ( 0x41200000 )
000809 e280     +LDI R24 , BYTE3 ( 0x41200000 )
00080a e491     +LDI R25 , BYTE4 ( 0x41200000 )
                 	__GETD2N 0x41200000
00080b 940e 0b3d 	CALL __MULF12
00080d 940e 0ad8 	CALL __CFD1
00080f 018f      	MOVW R16,R30
                 ; 0004 010D 
                 ; 0004 010E         ModbusSetRegister(VBAT_R,vbat);
000810 940e 0a3e 	CALL SUBOPT_0x30
000812 931a      	ST   -Y,R17
000813 930a      	ST   -Y,R16
000814 940e 0129 	CALL _ModbusSetRegister
                 ; 0004 010F 
                 ; 0004 0110         /************Senzori***************/
                 ; 0004 0111         if(sensor1==1)
000816 e0a0      	LDI  R26,0
000817 99c8      	SBIC 0x19,0
000818 e0a1      	LDI  R26,1
000819 30a1      	CPI  R26,LOW(0x1)
00081a f421      	BRNE _0x80010
                 ; 0004 0112             ModbusSetCoil(SENSOR1,1);
00081b 940e 09f4 	CALL SUBOPT_0x27
00081d e0e1      	LDI  R30,LOW(1)
00081e c003      	RJMP _0x80023
                 ; 0004 0113         else
                 _0x80010:
                 ; 0004 0114             ModbusSetCoil(SENSOR1,0);
00081f 940e 09f4 	CALL SUBOPT_0x27
000821 e0e0      	LDI  R30,LOW(0)
                 _0x80023:
000822 93ea      	ST   -Y,R30
000823 940e 008d 	CALL _ModbusSetCoil
                 ; 0004 0115 
                 ; 0004 0116         if(sensor2==1)
000825 e0a0      	LDI  R26,0
000826 99c9      	SBIC 0x19,1
000827 e0a1      	LDI  R26,1
000828 30a1      	CPI  R26,LOW(0x1)
000829 f421      	BRNE _0x80012
                 ; 0004 0117             ModbusSetCoil(SENSOR2,1);
00082a 940e 09f9 	CALL SUBOPT_0x28
00082c e0e1      	LDI  R30,LOW(1)
00082d c003      	RJMP _0x80024
                 ; 0004 0118         else
                 _0x80012:
                 ; 0004 0119             ModbusSetCoil(SENSOR2,0);
00082e 940e 09f9 	CALL SUBOPT_0x28
000830 e0e0      	LDI  R30,LOW(0)
                 _0x80024:
000831 93ea      	ST   -Y,R30
000832 940e 008d 	CALL _ModbusSetCoil
                 ; 0004 011A 
                 ; 0004 011B         if(sensor3==1)
000834 e0a0      	LDI  R26,0
000835 99ca      	SBIC 0x19,2
000836 e0a1      	LDI  R26,1
000837 30a1      	CPI  R26,LOW(0x1)
000838 f421      	BRNE _0x80014
                 ; 0004 011C             ModbusSetCoil(SENSOR3,1);
000839 940e 0a3e 	CALL SUBOPT_0x30
00083b e0e1      	LDI  R30,LOW(1)
00083c c003      	RJMP _0x80025
                 ; 0004 011D         else
                 _0x80014:
                 ; 0004 011E             ModbusSetCoil(SENSOR3,0);
00083d 940e 0a3e 	CALL SUBOPT_0x30
00083f e0e0      	LDI  R30,LOW(0)
                 _0x80025:
000840 93ea      	ST   -Y,R30
000841 940e 008d 	CALL _ModbusSetCoil
                 ; 0004 011F 
                 ; 0004 0120         if(sensor4==1)
000843 e0a0      	LDI  R26,0
000844 9906      	SBIC 0x0,6
000845 e0a1      	LDI  R26,1
000846 30a1      	CPI  R26,LOW(0x1)
000847 f431      	BRNE _0x80016
                 ; 0004 0121             ModbusSetCoil(SENSOR4,1);
000848 e0e4      	LDI  R30,LOW(4)
000849 e0f0      	LDI  R31,HIGH(4)
00084a 93fa      	ST   -Y,R31
00084b 93ea      	ST   -Y,R30
00084c e0e1      	LDI  R30,LOW(1)
00084d c005      	RJMP _0x80026
                 ; 0004 0122         else
                 _0x80016:
                 ; 0004 0123             ModbusSetCoil(SENSOR4,0);
00084e e0e4      	LDI  R30,LOW(4)
00084f e0f0      	LDI  R31,HIGH(4)
000850 93fa      	ST   -Y,R31
000851 93ea      	ST   -Y,R30
000852 e0e0      	LDI  R30,LOW(0)
                 _0x80026:
000853 93ea      	ST   -Y,R30
000854 940e 008d 	CALL _ModbusSetCoil
                 ; 0004 0124 
                 ; 0004 0125         if(sensor5==1)
000856 e0a0      	LDI  R26,0
000857 9905      	SBIC 0x0,5
000858 e0a1      	LDI  R26,1
000859 30a1      	CPI  R26,LOW(0x1)
00085a f431      	BRNE _0x80018
                 ; 0004 0126             ModbusSetCoil(SENSOR5,1);
00085b e0e5      	LDI  R30,LOW(5)
00085c e0f0      	LDI  R31,HIGH(5)
00085d 93fa      	ST   -Y,R31
00085e 93ea      	ST   -Y,R30
00085f e0e1      	LDI  R30,LOW(1)
000860 c005      	RJMP _0x80027
                 ; 0004 0127         else
                 _0x80018:
                 ; 0004 0128             ModbusSetCoil(SENSOR5,0);
000861 e0e5      	LDI  R30,LOW(5)
000862 e0f0      	LDI  R31,HIGH(5)
000863 93fa      	ST   -Y,R31
000864 93ea      	ST   -Y,R30
000865 e0e0      	LDI  R30,LOW(0)
                 _0x80027:
000866 93ea      	ST   -Y,R30
000867 940e 008d 	CALL _ModbusSetCoil
                 ; 0004 0129 
                 ; 0004 012A         if(sensor6==1)
000869 e0a0      	LDI  R26,0
00086a 9900      	SBIC 0x0,0
00086b e0a1      	LDI  R26,1
00086c 30a1      	CPI  R26,LOW(0x1)
00086d f431      	BRNE _0x8001A
                 ; 0004 012B             ModbusSetCoil(SENSOR6,1);
00086e e0e6      	LDI  R30,LOW(6)
00086f e0f0      	LDI  R31,HIGH(6)
000870 93fa      	ST   -Y,R31
000871 93ea      	ST   -Y,R30
000872 e0e1      	LDI  R30,LOW(1)
000873 c005      	RJMP _0x80028
                 ; 0004 012C         else
                 _0x8001A:
                 ; 0004 012D             ModbusSetCoil(SENSOR6,0);
000874 e0e6      	LDI  R30,LOW(6)
000875 e0f0      	LDI  R31,HIGH(6)
000876 93fa      	ST   -Y,R31
000877 93ea      	ST   -Y,R30
000878 e0e0      	LDI  R30,LOW(0)
                 _0x80028:
000879 93ea      	ST   -Y,R30
00087a 940e 008d 	CALL _ModbusSetCoil
                 ; 0004 012E 
                 ; 0004 012F 
                 ; 0004 0130         /************prekidaci**************/
                 ; 0004 0131         if(prekidac1==1)
00087c e0a0      	LDI  R26,0
00087d 999b      	SBIC 0x13,3
00087e e0a1      	LDI  R26,1
00087f 30a1      	CPI  R26,LOW(0x1)
000880 f431      	BRNE _0x8001C
                 ; 0004 0132             ModbusSetCoil(PREKIDAC1,1);
000881 e0e7      	LDI  R30,LOW(7)
000882 e0f0      	LDI  R31,HIGH(7)
000883 93fa      	ST   -Y,R31
000884 93ea      	ST   -Y,R30
000885 e0e1      	LDI  R30,LOW(1)
000886 c005      	RJMP _0x80029
                 ; 0004 0133         else
                 _0x8001C:
                 ; 0004 0134             ModbusSetCoil(PREKIDAC1,0);
000887 e0e7      	LDI  R30,LOW(7)
000888 e0f0      	LDI  R31,HIGH(7)
000889 93fa      	ST   -Y,R31
00088a 93ea      	ST   -Y,R30
00088b e0e0      	LDI  R30,LOW(0)
                 _0x80029:
00088c 93ea      	ST   -Y,R30
00088d 940e 008d 	CALL _ModbusSetCoil
                 ; 0004 0135 
                 ; 0004 0136         if(prekidac2==1)
00088f e0a0      	LDI  R26,0
000890 999c      	SBIC 0x13,4
000891 e0a1      	LDI  R26,1
000892 30a1      	CPI  R26,LOW(0x1)
000893 f431      	BRNE _0x8001E
                 ; 0004 0137             ModbusSetCoil(PREKIDAC2,1);
000894 e0e8      	LDI  R30,LOW(8)
000895 e0f0      	LDI  R31,HIGH(8)
000896 93fa      	ST   -Y,R31
000897 93ea      	ST   -Y,R30
000898 e0e1      	LDI  R30,LOW(1)
000899 c005      	RJMP _0x8002A
                 ; 0004 0138         else
                 _0x8001E:
                 ; 0004 0139             ModbusSetCoil(PREKIDAC2,0);
00089a e0e8      	LDI  R30,LOW(8)
00089b e0f0      	LDI  R31,HIGH(8)
00089c 93fa      	ST   -Y,R31
00089d 93ea      	ST   -Y,R30
00089e e0e0      	LDI  R30,LOW(0)
                 _0x8002A:
00089f 93ea      	ST   -Y,R30
0008a0 940e 008d 	CALL _ModbusSetCoil
                 ; 0004 013A 
                 ; 0004 013B         /************senzor toruglovi**************/
                 ; 0004 013C         if(sensorTrouglovi==1)
0008a2 e0a0      	LDI  R26,0
0008a3 9907      	SBIC 0x0,7
0008a4 e0a1      	LDI  R26,1
0008a5 30a1      	CPI  R26,LOW(0x1)
0008a6 f431      	BRNE _0x80020
                 ; 0004 013D             ModbusSetCoil(SENSOR_TROUGLOVI,1);
0008a7 e0eb      	LDI  R30,LOW(11)
0008a8 e0f0      	LDI  R31,HIGH(11)
0008a9 93fa      	ST   -Y,R31
0008aa 93ea      	ST   -Y,R30
0008ab e0e1      	LDI  R30,LOW(1)
0008ac c005      	RJMP _0x8002B
                 ; 0004 013E         else
                 _0x80020:
                 ; 0004 013F             ModbusSetCoil(SENSOR_TROUGLOVI,0);
0008ad e0eb      	LDI  R30,LOW(11)
0008ae e0f0      	LDI  R31,HIGH(11)
0008af 93fa      	ST   -Y,R31
0008b0 93ea      	ST   -Y,R30
0008b1 e0e0      	LDI  R30,LOW(0)
                 _0x8002B:
0008b2 93ea      	ST   -Y,R30
0008b3 940e 008d 	CALL _ModbusSetCoil
                 ; 0004 0140 
                 ; 0004 0141       };
0008b5 cf40      	RJMP _0x8000D
                 ; 0004 0142 }
                 _0x80022:
0008b6 cfff      	RJMP _0x80022
                 
                 	.CSEG
                 
                 	.DSEG
                 
                 	.CSEG
                 	#ifndef __SLEEP_DEFINED__
                 	#endif
                 
                 	.CSEG
                 _putchar:
0008b7 9b5d           sbis usr,udre
0008b8 cffe           rjmp _putchar
0008b9 81e8           ld   r30,y
0008ba b9ec           out  udr,r30
                 _0x20A0001:
0008bb 9621      	ADIW R28,1
0008bc 9508      	RET
                 
                 	.CSEG
                 
                 	.CSEG
                 
                 	.CSEG
                 
                 	.DSEG
                 _slave_address_G000:
000500           	.BYTE 0x1
                 _coils_array_G000:
000501           	.BYTE 0xC
                 _registers_array_G000:
00050d           	.BYTE 0x8
                 _events_array_G000:
000515           	.BYTE 0x6
                 _events_num_G000:
00051b           	.BYTE 0x1
                 _events_head_G000:
00051c           	.BYTE 0x1
                 _events_tail_G000:
00051d           	.BYTE 0x1
                 _CoilsEventFunctions_G000:
00051e           	.BYTE 0x18
                 _RegistersEventFunctions_G000:
000536           	.BYTE 0x8
                 _asciiPart:
00053e           	.BYTE 0x4
                 _function:
000542           	.BYTE 0x1
                 _data:
000543           	.BYTE 0x50
                 _byte:
000593           	.BYTE 0x28
                 _LRC:
0005bb           	.BYTE 0x1
                 _DirPinFunction:
0005bc           	.BYTE 0x2
                 _ModbusMainFunction:
0005be           	.BYTE 0x2
                 _rx_buffer:
0005c0           	.BYTE 0x40
                 _rx_wr_index:
000600           	.BYTE 0x1
                 _rx_rd_index:
000601           	.BYTE 0x1
                 _rx_counter:
000602           	.BYTE 0x1
                 _tx_buffer:
000603           	.BYTE 0x40
                 _tx_wr_index:
000643           	.BYTE 0x1
                 _tx_rd_index:
000644           	.BYTE 0x1
                 _tx_counter:
000645           	.BYTE 0x1
                 _brzina_servo_H:
000646           	.BYTE 0x1
                 _brzina_servo_L:
000647           	.BYTE 0x1
                 _ugao_servo_H:
000648           	.BYTE 0x1
                 _ugao_servo_L:
000649           	.BYTE 0x1
                 _sum:
00064a           	.BYTE 0x1
                 _checksum:
00064b           	.BYTE 0x1
                 _greska:
00064c           	.BYTE 0x1
                 _IdServoGreska:
00064d           	.BYTE 0x1
                 _paket1:
00064e           	.BYTE 0x1
                 _paket2:
00064f           	.BYTE 0x1
                 _paket4:
000650           	.BYTE 0x1
                 _paket6:
000651           	.BYTE 0x1
                 _moving:
000652           	.BYTE 0x1
                 _paket7:
000653           	.BYTE 0x1
                 _rx_buffer0:
000654           	.BYTE 0x10
                 _rx_wr_index0:
000664           	.BYTE 0x1
                 _rx_rd_index0:
000665           	.BYTE 0x1
                 _rx_counter0:
000666           	.BYTE 0x1
                 __seed_G100:
000667           	.BYTE 0x4
                 _p_S1040024:
00066b           	.BYTE 0x2
                 
                 	.CSEG
                 ;OPTIMIZER ADDED SUBROUTINE, CALLED 2 TIMES, CODE SIZE REDUCTION:1 WORDS
                 SUBOPT_0x0:
0008bd 81e9      	LDD  R30,Y+1
0008be 81fa      	LDD  R31,Y+1+1
0008bf 5fef      	SUBI R30,LOW(-_coils_array_G000)
0008c0 4ffa      	SBCI R31,HIGH(-_coils_array_G000)
0008c1 81a8      	LD   R26,Y
0008c2 83a0      	STD  Z+0,R26
0008c3 9508      	RET
                 
                 ;OPTIMIZER ADDED SUBROUTINE, CALLED 4 TIMES, CODE SIZE REDUCTION:3 WORDS
                 SUBOPT_0x1:
0008c4 e1ae      	LDI  R26,LOW(_CoilsEventFunctions_G000)
0008c5 e0b5      	LDI  R27,HIGH(_CoilsEventFunctions_G000)
0008c6 0fee      	LSL  R30
0008c7 1fff      	ROL  R31
0008c8 9508      	RET
                 
                 ;OPTIMIZER ADDED SUBROUTINE, CALLED 2 TIMES, CODE SIZE REDUCTION:2 WORDS
                 SUBOPT_0x2:
0008c9 91a0 051c 	LDS  R26,_events_head_G000
0008cb e0b0      	LDI  R27,0
0008cc 5eab      	SUBI R26,LOW(-_events_array_G000)
0008cd 4fba      	SBCI R27,HIGH(-_events_array_G000)
0008ce 9508      	RET
                 
                 ;OPTIMIZER ADDED SUBROUTINE, CALLED 2 TIMES, CODE SIZE REDUCTION:2 WORDS
                 SUBOPT_0x3:
0008cf 93ec      	ST   X,R30
0008d0 91a0 051c 	LDS  R26,_events_head_G000
0008d2 5faf      	SUBI R26,-LOW(1)
0008d3 93a0 051c 	STS  _events_head_G000,R26
0008d5 30a6      	CPI  R26,LOW(0x6)
0008d6 9508      	RET
                 
                 ;OPTIMIZER ADDED SUBROUTINE, CALLED 3 TIMES, CODE SIZE REDUCTION:1 WORDS
                 SUBOPT_0x4:
0008d7 81ae      	LDD  R26,Y+6
0008d8 81bf      	LDD  R27,Y+6+1
0008d9 0fae      	ADD  R26,R30
0008da 1fbf      	ADC  R27,R31
0008db 9508      	RET
                 
                 ;OPTIMIZER ADDED SUBROUTINE, CALLED 2 TIMES, CODE SIZE REDUCTION:2 WORDS
                 SUBOPT_0x5:
0008dc 81ac      	LDD  R26,Y+4
0008dd 81bd      	LDD  R27,Y+4+1
0008de 9711      	SBIW R26,1
0008df 01fd      	MOVW R30,R26
0008e0 940e 0a73 	CALL __LSRW3
0008e2 9631      	ADIW R30,1
0008e3 9508      	RET
                 
                 ;OPTIMIZER ADDED SUBROUTINE, CALLED 2 TIMES, CODE SIZE REDUCTION:2 WORDS
                 SUBOPT_0x6:
0008e4 01f8      	MOVW R30,R16
0008e5 940e 0a6c 	CALL __ASRW3
0008e7 81aa      	LDD  R26,Y+2
0008e8 81bb      	LDD  R27,Y+2+1
0008e9 0fea      	ADD  R30,R26
0008ea 1ffb      	ADC  R31,R27
0008eb 9508      	RET
                 
                 ;OPTIMIZER ADDED SUBROUTINE, CALLED 2 TIMES, CODE SIZE REDUCTION:6 WORDS
                 SUBOPT_0x7:
0008ec 8160      	LD   R22,Z
0008ed 2777      	CLR  R23
0008ee 01d8      	MOVW R26,R16
0008ef e0e8      	LDI  R30,LOW(8)
0008f0 e0f0      	LDI  R31,HIGH(8)
0008f1 940e 0a97 	CALL __MODW21
0008f3 e0a1      	LDI  R26,LOW(1)
0008f4 e0b0      	LDI  R27,HIGH(1)
0008f5 940e 0a4f 	CALL __LSLW12
0008f7 9508      	RET
                 
                 ;OPTIMIZER ADDED SUBROUTINE, CALLED 3 TIMES, CODE SIZE REDUCTION:3 WORDS
                 SUBOPT_0x8:
0008f8 81aa      	LDD  R26,Y+2
0008f9 81bb      	LDD  R27,Y+2+1
0008fa 34a0      	CPI  R26,LOW(0x40)
0008fb e0e0      	LDI  R30,HIGH(0x40)
0008fc 07be      	CPC  R27,R30
0008fd 9508      	RET
                 
                 ;OPTIMIZER ADDED SUBROUTINE, CALLED 3 TIMES, CODE SIZE REDUCTION:9 WORDS
                 SUBOPT_0x9:
0008fe 0fea      	ADD  R30,R26
0008ff 1ffb      	ADC  R31,R27
000900 81a8      	LD   R26,Y
000901 81b9      	LDD  R27,Y+1
000902 83a0      	STD  Z+0,R26
000903 83b1      	STD  Z+1,R27
000904 e0e1      	LDI  R30,LOW(1)
000905 e0f0      	LDI  R31,HIGH(1)
000906 9508      	RET
                 
                 ;OPTIMIZER ADDED SUBROUTINE, CALLED 3 TIMES, CODE SIZE REDUCTION:5 WORDS
                 SUBOPT_0xA:
000907 81ea      	LDD  R30,Y+2
000908 81fb      	LDD  R31,Y+2+1
000909 e0ad      	LDI  R26,LOW(_registers_array_G000)
00090a e0b5      	LDI  R27,HIGH(_registers_array_G000)
00090b 0fee      	LSL  R30
00090c 1fff      	ROL  R31
00090d 9508      	RET
                 
                 ;OPTIMIZER ADDED SUBROUTINE, CALLED 2 TIMES, CODE SIZE REDUCTION:1 WORDS
                 SUBOPT_0xB:
00090e 81ea      	LDD  R30,Y+2
00090f 81fb      	LDD  R31,Y+2+1
000910 e3a6      	LDI  R26,LOW(_RegistersEventFunctions_G000)
000911 e0b5      	LDI  R27,HIGH(_RegistersEventFunctions_G000)
000912 0fee      	LSL  R30
000913 1fff      	ROL  R31
000914 9508      	RET
                 
                 ;OPTIMIZER ADDED SUBROUTINE, CALLED 6 TIMES, CODE SIZE REDUCTION:7 WORDS
                 SUBOPT_0xC:
000915 0fae      	ADD  R26,R30
000916 1fbf      	ADC  R27,R31
000917 940e 0aa5 	CALL __GETW1P
000919 9508      	RET
                 
                 ;OPTIMIZER ADDED SUBROUTINE, CALLED 2 TIMES, CODE SIZE REDUCTION:9 WORDS
                 SUBOPT_0xD:
00091a 0fe2      	ADD  R30,R18
00091b 1ff3      	ADC  R31,R19
00091c 010f      	MOVW R0,R30
00091d 01f8      	MOVW R30,R16
00091e 85a8      	LDD  R26,Y+8
00091f 85b9      	LDD  R27,Y+8+1
000920 0fea      	ADD  R30,R26
000921 1ffb      	ADC  R31,R27
000922 e0ad      	LDI  R26,LOW(_registers_array_G000)
000923 e0b5      	LDI  R27,HIGH(_registers_array_G000)
000924 0fee      	LSL  R30
000925 1fff      	ROL  R31
000926 cfee      	RJMP SUBOPT_0xC
                 
                 ;OPTIMIZER ADDED SUBROUTINE, CALLED 3 TIMES, CODE SIZE REDUCTION:1 WORDS
                 SUBOPT_0xE:
000927 91ec      	LD   R30,X
000928 e0f0      	LDI  R31,0
000929 9508      	RET
                 
                 ;OPTIMIZER ADDED SUBROUTINE, CALLED 3 TIMES, CODE SIZE REDUCTION:1 WORDS
                 SUBOPT_0xF:
00092a 81e9      	LDD  R30,Y+1
00092b e0f0      	LDI  R31,0
00092c 9508      	RET
                 
                 ;OPTIMIZER ADDED SUBROUTINE, CALLED 4 TIMES, CODE SIZE REDUCTION:3 WORDS
                 SUBOPT_0x10:
00092d 81e8      	LD   R30,Y
00092e e0f0      	LDI  R31,0
00092f 9508      	RET
                 
                 ;OPTIMIZER ADDED SUBROUTINE, CALLED 11 TIMES, CODE SIZE REDUCTION:17 WORDS
                 SUBOPT_0x11:
000930 0fea      	ADD  R30,R26
000931 1ffb      	ADC  R31,R27
000932 93fa      	ST   -Y,R31
000933 93ea      	ST   -Y,R30
000934 9508      	RET
                 
                 ;OPTIMIZER ADDED SUBROUTINE, CALLED 2 TIMES, CODE SIZE REDUCTION:1 WORDS
                 SUBOPT_0x12:
000935 0fae      	ADD  R26,R30
000936 1fbf      	ADC  R27,R31
000937 e0e0      	LDI  R30,LOW(0)
000938 e0f0      	LDI  R31,HIGH(0)
000939 93ed      	ST   X+,R30
00093a 93fc      	ST   X,R31
00093b 9508      	RET
                 
                 ;OPTIMIZER ADDED SUBROUTINE, CALLED 4 TIMES, CODE SIZE REDUCTION:15 WORDS
                 SUBOPT_0x13:
00093c e0e1      	LDI  R30,LOW(1)
00093d e0f0      	LDI  R31,HIGH(1)
00093e 012f      	MOVW R4,R30
00093f 2466      	CLR  R6
000940 2477      	CLR  R7
000941 e0e0      	LDI  R30,LOW(0)
000942 93e0 05bb 	STS  _LRC,R30
000944 9508      	RET
                 
                 ;OPTIMIZER ADDED SUBROUTINE, CALLED 2 TIMES, CODE SIZE REDUCTION:3 WORDS
                 SUBOPT_0x14:
000945 01f3      	MOVW R30,R6
000946 9631      	ADIW R30,1
000947 013f      	MOVW R6,R30
000948 9731      	SBIW R30,1
000949 5ce2      	SUBI R30,LOW(-_asciiPart)
00094a 4ffa      	SBCI R31,HIGH(-_asciiPart)
00094b 8310      	ST   Z,R17
00094c 331a      	CPI  R17,58
00094d 9508      	RET
                 
                 ;OPTIMIZER ADDED SUBROUTINE, CALLED 2 TIMES, CODE SIZE REDUCTION:9 WORDS
                 SUBOPT_0x15:
00094e e9e3      	LDI  R30,LOW(_byte)
00094f e0f5      	LDI  R31,HIGH(_byte)
000950 93fa      	ST   -Y,R31
000951 93ea      	ST   -Y,R30
000952 91e0 053e 	LDS  R30,_asciiPart
000954 93ea      	ST   -Y,R30
                +
000955 91e0 053f+LDS R30 , _asciiPart + 1
                 	__GETB1MN _asciiPart,1
000957 93ea      	ST   -Y,R30
000958 940e 0208 	CALL _ModbusASCIIToByte
00095a 91e0 0593 	LDS  R30,_byte
00095c 9508      	RET
                 
                 ;OPTIMIZER ADDED SUBROUTINE, CALLED 2 TIMES, CODE SIZE REDUCTION:11 WORDS
                 SUBOPT_0x16:
00095d e0e2      	LDI  R30,LOW(2)
00095e e0f0      	LDI  R31,HIGH(2)
00095f 012f      	MOVW R4,R30
000960 91a0 05bb 	LDS  R26,_LRC
000962 27bb      	CLR  R27
000963 91e0 0593 	LDS  R30,_byte
000965 e0f0      	LDI  R31,0
000966 0fea      	ADD  R30,R26
000967 93e0 05bb 	STS  _LRC,R30
000969 2466      	CLR  R6
00096a 2477      	CLR  R7
00096b 9508      	RET
                 
                 ;OPTIMIZER ADDED SUBROUTINE, CALLED 3 TIMES, CODE SIZE REDUCTION:3 WORDS
                 SUBOPT_0x17:
00096c 91e0 0593 	LDS  R30,_byte
00096e e0f0      	LDI  R31,0
00096f 9508      	RET
                 
                 ;OPTIMIZER ADDED SUBROUTINE, CALLED 3 TIMES, CODE SIZE REDUCTION:3 WORDS
                 SUBOPT_0x18:
000970 91e0 05bb 	LDS  R30,_LRC
000972 e0f0      	LDI  R31,0
000973 9508      	RET
                 
                 ;OPTIMIZER ADDED SUBROUTINE, CALLED 3 TIMES, CODE SIZE REDUCTION:1 WORDS
                 SUBOPT_0x19:
000974 e9e3      	LDI  R30,LOW(_byte)
000975 e0f5      	LDI  R31,HIGH(_byte)
000976 93fa      	ST   -Y,R31
000977 93ea      	ST   -Y,R30
000978 9508      	RET
                 
                 ;OPTIMIZER ADDED SUBROUTINE, CALLED 2 TIMES, CODE SIZE REDUCTION:2 WORDS
                 SUBOPT_0x1A:
000979 efaf      	LDI  R26,LOW(255)
00097a e0b0      	LDI  R27,HIGH(255)
00097b 27ea      	EOR  R30,R26
00097c 27fb      	EOR  R31,R27
00097d 9631      	ADIW R30,1
00097e 93e0 05bb 	STS  _LRC,R30
000980 9508      	RET
                 
                 ;OPTIMIZER ADDED SUBROUTINE, CALLED 11 TIMES, CODE SIZE REDUCTION:67 WORDS
                 SUBOPT_0x1B:
000981 91f0 0593 	LDS  R31,_byte
000983 e0e0      	LDI  R30,LOW(0)
000984 01df      	MOVW R26,R30
                +
000985 91e0 0594+LDS R30 , _byte + 1
                 	__GETB1MN _byte,1
000987 e0f0      	LDI  R31,0
000988 9508      	RET
                 
                 ;OPTIMIZER ADDED SUBROUTINE, CALLED 2 TIMES, CODE SIZE REDUCTION:10 WORDS
                 SUBOPT_0x1C:
000989 0fae      	ADD  R26,R30
00098a 1fbf      	ADC  R27,R31
                +
00098b 91f0 0595+LDS R31 , _byte + 2
                 	__GETB1HMN _byte,2
00098d e0e0      	LDI  R30,LOW(0)
00098e 0fae      	ADD  R26,R30
00098f 1fbf      	ADC  R27,R31
                +
000990 91e0 0596+LDS R30 , _byte + 3
                 	__GETB1MN _byte,3
000992 e0f0      	LDI  R31,0
000993 0fae      	ADD  R26,R30
000994 1fbf      	ADC  R27,R31
000995 971d      	SBIW R26,13
000996 9508      	RET
                 
                 ;OPTIMIZER ADDED SUBROUTINE, CALLED 9 TIMES, CODE SIZE REDUCTION:53 WORDS
                 SUBOPT_0x1D:
                +
000997 91f0 0595+LDS R31 , _byte + 2
                 	__GETB1HMN _byte,2
000999 e0e0      	LDI  R30,LOW(0)
00099a 01df      	MOVW R26,R30
                +
00099b 91e0 0596+LDS R30 , _byte + 3
                 	__GETB1MN _byte,3
00099d e0f0      	LDI  R31,0
00099e 9508      	RET
                 
                 ;OPTIMIZER ADDED SUBROUTINE, CALLED 2 TIMES, CODE SIZE REDUCTION:1 WORDS
                 SUBOPT_0x1E:
00099f 93ea      	ST   -Y,R30
0009a0 940e 0097 	CALL _ModbusSetCoilPrivate
0009a2 3fef      	CPI  R30,LOW(0xFFFF)
0009a3 efaf      	LDI  R26,HIGH(0xFFFF)
0009a4 07fa      	CPC  R31,R26
0009a5 9508      	RET
                 
                 ;OPTIMIZER ADDED SUBROUTINE, CALLED 2 TIMES, CODE SIZE REDUCTION:2 WORDS
                 SUBOPT_0x1F:
0009a6 0fea      	ADD  R30,R26
0009a7 1ffb      	ADC  R31,R27
0009a8 0de8      	ADD  R30,R8
0009a9 1df9      	ADC  R31,R9
0009aa 93fa      	ST   -Y,R31
0009ab 93ea      	ST   -Y,R30
0009ac 01f4      	MOVW R30,R8
0009ad 9508      	RET
                 
                 ;OPTIMIZER ADDED SUBROUTINE, CALLED 2 TIMES, CODE SIZE REDUCTION:10 WORDS
                 SUBOPT_0x20:
0009ae 0fae      	ADD  R26,R30
0009af 1fbf      	ADC  R27,R31
                +
0009b0 91f0 0595+LDS R31 , _byte + 2
                 	__GETB1HMN _byte,2
0009b2 e0e0      	LDI  R30,LOW(0)
0009b3 0fae      	ADD  R26,R30
0009b4 1fbf      	ADC  R27,R31
                +
0009b5 91e0 0596+LDS R30 , _byte + 3
                 	__GETB1MN _byte,3
0009b7 e0f0      	LDI  R31,0
0009b8 0fae      	ADD  R26,R30
0009b9 1fbf      	ADC  R27,R31
0009ba 9715      	SBIW R26,5
0009bb 9508      	RET
                 
                 ;OPTIMIZER ADDED SUBROUTINE, CALLED 3 TIMES, CODE SIZE REDUCTION:1 WORDS
                 SUBOPT_0x21:
0009bc 93fa      	ST   -Y,R31
0009bd 93ea      	ST   -Y,R30
0009be 940c 01d4 	JMP  _ModbusByteToASCII
                 
                 ;OPTIMIZER ADDED SUBROUTINE, CALLED 2 TIMES, CODE SIZE REDUCTION:1 WORDS
                 SUBOPT_0x22:
0009c0 e0f0      	LDI  R31,0
0009c1 0fea      	ADD  R30,R26
0009c2 93e0 05bb 	STS  _LRC,R30
0009c4 9508      	RET
                 
                 ;OPTIMIZER ADDED SUBROUTINE, CALLED 5 TIMES, CODE SIZE REDUCTION:5 WORDS
                 SUBOPT_0x23:
0009c5 2fa1      	MOV  R26,R17
0009c6 e0b0      	LDI  R27,0
0009c7 9508      	RET
                 
                 ;OPTIMIZER ADDED SUBROUTINE, CALLED 2 TIMES, CODE SIZE REDUCTION:8 WORDS
                 SUBOPT_0x24:
0009c8 920a      	ST   -Y,R0
0009c9 921a      	ST   -Y,R1
0009ca 92fa      	ST   -Y,R15
0009cb 936a      	ST   -Y,R22
0009cc 937a      	ST   -Y,R23
0009cd 938a      	ST   -Y,R24
0009ce 939a      	ST   -Y,R25
0009cf 93aa      	ST   -Y,R26
0009d0 93ba      	ST   -Y,R27
0009d1 93ea      	ST   -Y,R30
0009d2 93fa      	ST   -Y,R31
0009d3 b7ef      	IN   R30,SREG
0009d4 93ea      	ST   -Y,R30
0009d5 9508      	RET
                 
                 ;OPTIMIZER ADDED SUBROUTINE, CALLED 2 TIMES, CODE SIZE REDUCTION:2 WORDS
                 SUBOPT_0x25:
0009d6 93fa      	ST   -Y,R31
0009d7 93ea      	ST   -Y,R30
                +
0009d8 91e0 05bc+LDS R30 , _DirPinFunction + 0
0009da 91f0 05bd+LDS R31 , _DirPinFunction + 0 + 1
0009dc 9509     +ICALL
                 	__CALL1MN _DirPinFunction,0
0009dd 9508      	RET
                 
                 ;OPTIMIZER ADDED SUBROUTINE, CALLED 2 TIMES, CODE SIZE REDUCTION:17 WORDS
                 SUBOPT_0x26:
0009de 940e 0737 	CALL _getchar
0009e0 93e0 064e 	STS  _paket1,R30
0009e2 940e 0737 	CALL _getchar
0009e4 93e0 064f 	STS  _paket2,R30
0009e6 940e 0737 	CALL _getchar
0009e8 93e0 064d 	STS  _IdServoGreska,R30
0009ea 940e 0737 	CALL _getchar
0009ec 93e0 0650 	STS  _paket4,R30
0009ee 940e 0737 	CALL _getchar
0009f0 93e0 064c 	STS  _greska,R30
0009f2 940c 0737 	JMP  _getchar
                 
                 ;OPTIMIZER ADDED SUBROUTINE, CALLED 5 TIMES, CODE SIZE REDUCTION:5 WORDS
                 SUBOPT_0x27:
0009f4 e0e1      	LDI  R30,LOW(1)
0009f5 e0f0      	LDI  R31,HIGH(1)
0009f6 93fa      	ST   -Y,R31
0009f7 93ea      	ST   -Y,R30
0009f8 9508      	RET
                 
                 ;OPTIMIZER ADDED SUBROUTINE, CALLED 3 TIMES, CODE SIZE REDUCTION:1 WORDS
                 SUBOPT_0x28:
0009f9 e0e2      	LDI  R30,LOW(2)
0009fa e0f0      	LDI  R31,HIGH(2)
0009fb 93fa      	ST   -Y,R31
0009fc 93ea      	ST   -Y,R30
0009fd 9508      	RET
                 
                 ;OPTIMIZER ADDED SUBROUTINE, CALLED 2 TIMES, CODE SIZE REDUCTION:15 WORDS
                 SUBOPT_0x29:
0009fe 93e0 064a 	STS  _sum,R30
000a00 95e0      	COM  R30
000a01 93e0 064b 	STS  _checksum,R30
000a03 940e 065c 	CALL _blokiranje_prijema
000a05 9a95      	SBI  0x12,5
000a06 940e 0658 	CALL _oslobadjanje_predaje
000a08 efef      	LDI  R30,LOW(255)
000a09 93ea      	ST   -Y,R30
000a0a 940e 08b7 	CALL _putchar
000a0c efef      	LDI  R30,LOW(255)
000a0d 93ea      	ST   -Y,R30
000a0e 940c 08b7 	JMP  _putchar
                 
                 ;OPTIMIZER ADDED SUBROUTINE, CALLED 2 TIMES, CODE SIZE REDUCTION:8 WORDS
                 SUBOPT_0x2A:
000a10 93ea      	ST   -Y,R30
000a11 940e 08b7 	CALL _putchar
000a13 91e0 064b 	LDS  R30,_checksum
000a15 93ea      	ST   -Y,R30
000a16 940e 08b7 	CALL _putchar
000a18 940e 0651 	CALL _blokiranje_predaje
000a1a 9895      	CBI  0x12,5
000a1b 940c 065a 	JMP  _oslobadjanje_prijema
                 
                 ;OPTIMIZER ADDED SUBROUTINE, CALLED 2 TIMES, CODE SIZE REDUCTION:4 WORDS
                 SUBOPT_0x2B:
000a1d e0ea      	LDI  R30,LOW(10)
000a1e e0f0      	LDI  R31,HIGH(10)
000a1f 93fa      	ST   -Y,R31
000a20 93ea      	ST   -Y,R30
000a21 91e0 0652 	LDS  R30,_moving
000a23 93ea      	ST   -Y,R30
000a24 940c 008d 	JMP  _ModbusSetCoil
                 
                 ;OPTIMIZER ADDED SUBROUTINE, CALLED 2 TIMES, CODE SIZE REDUCTION:1 WORDS
                 SUBOPT_0x2C:
000a26 50e1      	SUBI R30,LOW(1)
000a27 e0f0      	LDI  R31,0
000a28 5aec      	SUBI R30,LOW(-_rx_buffer0)
000a29 4ff9      	SBCI R31,HIGH(-_rx_buffer0)
000a2a 9508      	RET
                 
                 ;OPTIMIZER ADDED SUBROUTINE, CALLED 3 TIMES, CODE SIZE REDUCTION:1 WORDS
                 SUBOPT_0x2D:
000a2b b1e6      	IN   R30,0x6
000a2c e0f0      	LDI  R31,0
000a2d 9508      	RET
                 
                 ;OPTIMIZER ADDED SUBROUTINE, CALLED 2 TIMES, CODE SIZE REDUCTION:4 WORDS
                 SUBOPT_0x2E:
000a2e bdee      	OUT  0x2E,R30
000a2f e0e0      	LDI  R30,LOW(0)
000a30 bded      	OUT  0x2D,R30
000a31 bdec      	OUT  0x2C,R30
000a32 bde7      	OUT  0x27,R30
000a33 bde6      	OUT  0x26,R30
000a34 9508      	RET
                 
                 ;OPTIMIZER ADDED SUBROUTINE, CALLED 2 TIMES, CODE SIZE REDUCTION:7 WORDS
                 SUBOPT_0x2F:
000a35 bdea      	OUT  0x2A,R30
000a36 e0e0      	LDI  R30,LOW(0)
000a37 bde9      	OUT  0x29,R30
000a38 bde8      	OUT  0x28,R30
000a39 93e0 0079 	STS  121,R30
000a3b 93e0 0078 	STS  120,R30
000a3d 9508      	RET
                 
                 ;OPTIMIZER ADDED SUBROUTINE, CALLED 3 TIMES, CODE SIZE REDUCTION:1 WORDS
                 SUBOPT_0x30:
000a3e e0e3      	LDI  R30,LOW(3)
000a3f e0f0      	LDI  R31,HIGH(3)
000a40 93fa      	ST   -Y,R31
000a41 93ea      	ST   -Y,R30
000a42 9508      	RET
                 
                 
                 	.CSEG
                 __ANEGW1:
000a43 95f1      	NEG  R31
000a44 95e1      	NEG  R30
000a45 40f0      	SBCI R31,0
000a46 9508      	RET
                 
                 __ANEGD1:
000a47 95f0      	COM  R31
000a48 9560      	COM  R22
000a49 9570      	COM  R23
000a4a 95e1      	NEG  R30
000a4b 4fff      	SBCI R31,-1
000a4c 4f6f      	SBCI R22,-1
000a4d 4f7f      	SBCI R23,-1
000a4e 9508      	RET
                 
                 __LSLW12:
000a4f 23ee      	TST  R30
000a50 2e0e      	MOV  R0,R30
000a51 01fd      	MOVW R30,R26
000a52 f021      	BREQ __LSLW12R
                 __LSLW12L:
000a53 0fee      	LSL  R30
000a54 1fff      	ROL  R31
000a55 940a      	DEC  R0
000a56 f7e1      	BRNE __LSLW12L
                 __LSLW12R:
000a57 9508      	RET
                 
                 __ASRW12:
000a58 23ee      	TST  R30
000a59 2e0e      	MOV  R0,R30
000a5a 01fd      	MOVW R30,R26
000a5b f021      	BREQ __ASRW12R
                 __ASRW12L:
000a5c 95f5      	ASR  R31
000a5d 95e7      	ROR  R30
000a5e 940a      	DEC  R0
000a5f f7e1      	BRNE __ASRW12L
                 __ASRW12R:
000a60 9508      	RET
                 
                 __LSLW4:
000a61 0fee      	LSL  R30
000a62 1fff      	ROL  R31
                 __LSLW3:
000a63 0fee      	LSL  R30
000a64 1fff      	ROL  R31
                 __LSLW2:
000a65 0fee      	LSL  R30
000a66 1fff      	ROL  R31
000a67 0fee      	LSL  R30
000a68 1fff      	ROL  R31
000a69 9508      	RET
                 
                 __ASRW4:
000a6a 95f5      	ASR  R31
000a6b 95e7      	ROR  R30
                 __ASRW3:
000a6c 95f5      	ASR  R31
000a6d 95e7      	ROR  R30
                 __ASRW2:
000a6e 95f5      	ASR  R31
000a6f 95e7      	ROR  R30
000a70 95f5      	ASR  R31
000a71 95e7      	ROR  R30
000a72 9508      	RET
                 
                 __LSRW3:
000a73 95f6      	LSR  R31
000a74 95e7      	ROR  R30
                 __LSRW2:
000a75 95f6      	LSR  R31
000a76 95e7      	ROR  R30
000a77 95f6      	LSR  R31
000a78 95e7      	ROR  R30
000a79 9508      	RET
                 
                 __ASRW8:
000a7a 2fef      	MOV  R30,R31
000a7b 27ff      	CLR  R31
000a7c fde7      	SBRC R30,7
000a7d efff      	SER  R31
000a7e 9508      	RET
                 
                 __CWD1:
000a7f 2f6f      	MOV  R22,R31
000a80 0f66      	ADD  R22,R22
000a81 0b66      	SBC  R22,R22
000a82 2f76      	MOV  R23,R22
000a83 9508      	RET
                 
                 __DIVW21U:
000a84 2400      	CLR  R0
000a85 2411      	CLR  R1
000a86 e190      	LDI  R25,16
                 __DIVW21U1:
000a87 0faa      	LSL  R26
000a88 1fbb      	ROL  R27
000a89 1c00      	ROL  R0
000a8a 1c11      	ROL  R1
000a8b 1a0e      	SUB  R0,R30
000a8c 0a1f      	SBC  R1,R31
000a8d f418      	BRCC __DIVW21U2
000a8e 0e0e      	ADD  R0,R30
000a8f 1e1f      	ADC  R1,R31
000a90 c001      	RJMP __DIVW21U3
                 __DIVW21U2:
000a91 60a1      	SBR  R26,1
                 __DIVW21U3:
000a92 959a      	DEC  R25
000a93 f799      	BRNE __DIVW21U1
000a94 01fd      	MOVW R30,R26
000a95 01d0      	MOVW R26,R0
000a96 9508      	RET
                 
                 __MODW21:
000a97 94e8      	CLT
000a98 ffb7      	SBRS R27,7
000a99 c004      	RJMP __MODW211
000a9a 95a0      	COM  R26
000a9b 95b0      	COM  R27
000a9c 9611      	ADIW R26,1
000a9d 9468      	SET
                 __MODW211:
000a9e fdf7      	SBRC R31,7
000a9f dfa3      	RCALL __ANEGW1
000aa0 dfe3      	RCALL __DIVW21U
000aa1 01fd      	MOVW R30,R26
000aa2 f40e      	BRTC __MODW212
000aa3 df9f      	RCALL __ANEGW1
                 __MODW212:
000aa4 9508      	RET
                 
                 __GETW1P:
000aa5 91ed      	LD   R30,X+
000aa6 91fc      	LD   R31,X
000aa7 9711      	SBIW R26,1
000aa8 9508      	RET
                 
                 __ROUND_REPACK:
000aa9 2355      	TST  R21
000aaa f442      	BRPL __REPACK
000aab 3850      	CPI  R21,0x80
000aac f411      	BRNE __ROUND_REPACK0
000aad ffe0      	SBRS R30,0
000aae c004      	RJMP __REPACK
                 __ROUND_REPACK0:
000aaf 9631      	ADIW R30,1
000ab0 1f69      	ADC  R22,R25
000ab1 1f79      	ADC  R23,R25
000ab2 f06b      	BRVS __REPACK1
                 
                 __REPACK:
000ab3 e850      	LDI  R21,0x80
000ab4 2757      	EOR  R21,R23
000ab5 f411      	BRNE __REPACK0
000ab6 935f      	PUSH R21
000ab7 c073      	RJMP __ZERORES
                 __REPACK0:
000ab8 3f5f      	CPI  R21,0xFF
000ab9 f031      	BREQ __REPACK1
000aba 0f66      	LSL  R22
000abb 0c00      	LSL  R0
000abc 9557      	ROR  R21
000abd 9567      	ROR  R22
000abe 2f75      	MOV  R23,R21
000abf 9508      	RET
                 __REPACK1:
000ac0 935f      	PUSH R21
000ac1 2000      	TST  R0
000ac2 f00a      	BRMI __REPACK2
000ac3 c073      	RJMP __MAXRES
                 __REPACK2:
000ac4 c06c      	RJMP __MINRES
                 
                 __UNPACK:
000ac5 e850      	LDI  R21,0x80
000ac6 2e19      	MOV  R1,R25
000ac7 2215      	AND  R1,R21
000ac8 0f88      	LSL  R24
000ac9 1f99      	ROL  R25
000aca 2795      	EOR  R25,R21
000acb 0f55      	LSL  R21
000acc 9587      	ROR  R24
                 
                 __UNPACK1:
000acd e850      	LDI  R21,0x80
000ace 2e07      	MOV  R0,R23
000acf 2205      	AND  R0,R21
000ad0 0f66      	LSL  R22
000ad1 1f77      	ROL  R23
000ad2 2775      	EOR  R23,R21
000ad3 0f55      	LSL  R21
000ad4 9567      	ROR  R22
000ad5 9508      	RET
                 
                 __CFD1U:
000ad6 9468      	SET
000ad7 c001      	RJMP __CFD1U0
                 __CFD1:
000ad8 94e8      	CLT
                 __CFD1U0:
000ad9 935f      	PUSH R21
000ada dff2      	RCALL __UNPACK1
000adb 3870      	CPI  R23,0x80
000adc f018      	BRLO __CFD10
000add 3f7f      	CPI  R23,0xFF
000ade f408      	BRCC __CFD10
000adf c04b      	RJMP __ZERORES
                 __CFD10:
000ae0 e156      	LDI  R21,22
000ae1 1b57      	SUB  R21,R23
000ae2 f4aa      	BRPL __CFD11
000ae3 9551      	NEG  R21
000ae4 3058      	CPI  R21,8
000ae5 f40e      	BRTC __CFD19
000ae6 3059      	CPI  R21,9
                 __CFD19:
000ae7 f030      	BRLO __CFD17
000ae8 efef      	SER  R30
000ae9 efff      	SER  R31
000aea ef6f      	SER  R22
000aeb e77f      	LDI  R23,0x7F
000aec f977      	BLD  R23,7
000aed c01a      	RJMP __CFD15
                 __CFD17:
000aee 2777      	CLR  R23
000aef 2355      	TST  R21
000af0 f0b9      	BREQ __CFD15
                 __CFD18:
000af1 0fee      	LSL  R30
000af2 1fff      	ROL  R31
000af3 1f66      	ROL  R22
000af4 1f77      	ROL  R23
000af5 955a      	DEC  R21
000af6 f7d1      	BRNE __CFD18
000af7 c010      	RJMP __CFD15
                 __CFD11:
000af8 2777      	CLR  R23
                 __CFD12:
000af9 3058      	CPI  R21,8
000afa f028      	BRLO __CFD13
000afb 2fef      	MOV  R30,R31
000afc 2ff6      	MOV  R31,R22
000afd 2f67      	MOV  R22,R23
000afe 5058      	SUBI R21,8
000aff cff9      	RJMP __CFD12
                 __CFD13:
000b00 2355      	TST  R21
000b01 f031      	BREQ __CFD15
                 __CFD14:
000b02 9576      	LSR  R23
000b03 9567      	ROR  R22
000b04 95f7      	ROR  R31
000b05 95e7      	ROR  R30
000b06 955a      	DEC  R21
000b07 f7d1      	BRNE __CFD14
                 __CFD15:
000b08 2000      	TST  R0
000b09 f40a      	BRPL __CFD16
000b0a df3c      	RCALL __ANEGD1
                 __CFD16:
000b0b 915f      	POP  R21
000b0c 9508      	RET
                 
                 __CDF1U:
000b0d 9468      	SET
000b0e c001      	RJMP __CDF1U0
                 __CDF1:
000b0f 94e8      	CLT
                 __CDF1U0:
000b10 9730      	SBIW R30,0
000b11 4060      	SBCI R22,0
000b12 4070      	SBCI R23,0
000b13 f0b1      	BREQ __CDF10
000b14 2400      	CLR  R0
000b15 f026      	BRTS __CDF11
000b16 2377      	TST  R23
000b17 f412      	BRPL __CDF11
000b18 9400      	COM  R0
000b19 df2d      	RCALL __ANEGD1
                 __CDF11:
000b1a 2e17      	MOV  R1,R23
000b1b e17e      	LDI  R23,30
000b1c 2011      	TST  R1
                 __CDF12:
000b1d f032      	BRMI __CDF13
000b1e 957a      	DEC  R23
000b1f 0fee      	LSL  R30
000b20 1fff      	ROL  R31
000b21 1f66      	ROL  R22
000b22 1c11      	ROL  R1
000b23 cff9      	RJMP __CDF12
                 __CDF13:
000b24 2fef      	MOV  R30,R31
000b25 2ff6      	MOV  R31,R22
000b26 2d61      	MOV  R22,R1
000b27 935f      	PUSH R21
000b28 df8a      	RCALL __REPACK
000b29 915f      	POP  R21
                 __CDF10:
000b2a 9508      	RET
                 
                 __ZERORES:
000b2b 27ee      	CLR  R30
000b2c 27ff      	CLR  R31
000b2d 2766      	CLR  R22
000b2e 2777      	CLR  R23
000b2f 915f      	POP  R21
000b30 9508      	RET
                 
                 __MINRES:
000b31 efef      	SER  R30
000b32 efff      	SER  R31
000b33 e76f      	LDI  R22,0x7F
000b34 ef7f      	SER  R23
000b35 915f      	POP  R21
000b36 9508      	RET
                 
                 __MAXRES:
000b37 efef      	SER  R30
000b38 efff      	SER  R31
000b39 e76f      	LDI  R22,0x7F
000b3a e77f      	LDI  R23,0x7F
000b3b 915f      	POP  R21
000b3c 9508      	RET
                 
                 __MULF12:
000b3d 935f      	PUSH R21
000b3e df86      	RCALL __UNPACK
000b3f 3870      	CPI  R23,0x80
000b40 f351      	BREQ __ZERORES
000b41 3890      	CPI  R25,0x80
000b42 f341      	BREQ __ZERORES
000b43 2401      	EOR  R0,R1
000b44 9408      	SEC
000b45 1f79      	ADC  R23,R25
000b46 f423      	BRVC __MULF124
000b47 f31c      	BRLT __ZERORES
                 __MULF125:
000b48 2000      	TST  R0
000b49 f33a      	BRMI __MINRES
000b4a cfec      	RJMP __MAXRES
                 __MULF124:
000b4b 920f      	PUSH R0
000b4c 931f      	PUSH R17
000b4d 932f      	PUSH R18
000b4e 933f      	PUSH R19
000b4f 934f      	PUSH R20
000b50 2711      	CLR  R17
000b51 2722      	CLR  R18
000b52 2799      	CLR  R25
000b53 9f68      	MUL  R22,R24
000b54 01a0      	MOVW R20,R0
000b55 9f8f      	MUL  R24,R31
000b56 2d30      	MOV  R19,R0
000b57 0d41      	ADD  R20,R1
000b58 1f59      	ADC  R21,R25
000b59 9f6b      	MUL  R22,R27
000b5a 0d30      	ADD  R19,R0
000b5b 1d41      	ADC  R20,R1
000b5c 1f59      	ADC  R21,R25
000b5d 9f8e      	MUL  R24,R30
000b5e d027      	RCALL __MULF126
000b5f 9fbf      	MUL  R27,R31
000b60 d025      	RCALL __MULF126
000b61 9f6a      	MUL  R22,R26
000b62 d023      	RCALL __MULF126
000b63 9fbe      	MUL  R27,R30
000b64 d01d      	RCALL __MULF127
000b65 9faf      	MUL  R26,R31
000b66 d01b      	RCALL __MULF127
000b67 9fae      	MUL  R26,R30
000b68 0d11      	ADD  R17,R1
000b69 1f29      	ADC  R18,R25
000b6a 1f39      	ADC  R19,R25
000b6b 1f49      	ADC  R20,R25
000b6c 1f59      	ADC  R21,R25
000b6d 2fe3      	MOV  R30,R19
000b6e 2ff4      	MOV  R31,R20
000b6f 2f65      	MOV  R22,R21
000b70 2f52      	MOV  R21,R18
000b71 914f      	POP  R20
000b72 913f      	POP  R19
000b73 912f      	POP  R18
000b74 911f      	POP  R17
000b75 900f      	POP  R0
000b76 2366      	TST  R22
000b77 f02a      	BRMI __MULF122
000b78 0f55      	LSL  R21
000b79 1fee      	ROL  R30
000b7a 1fff      	ROL  R31
000b7b 1f66      	ROL  R22
000b7c c002      	RJMP __MULF123
                 __MULF122:
000b7d 9573      	INC  R23
000b7e f24b      	BRVS __MULF125
                 __MULF123:
000b7f df29      	RCALL __ROUND_REPACK
000b80 915f      	POP  R21
000b81 9508      	RET
                 
                 __MULF127:
000b82 0d10      	ADD  R17,R0
000b83 1d21      	ADC  R18,R1
000b84 1f39      	ADC  R19,R25
000b85 c002      	RJMP __MULF128
                 __MULF126:
000b86 0d20      	ADD  R18,R0
000b87 1d31      	ADC  R19,R1
                 __MULF128:
000b88 1f49      	ADC  R20,R25
000b89 1f59      	ADC  R21,R25
000b8a 9508      	RET
                 
                 __SAVELOCR4:
000b8b 933a      	ST   -Y,R19
                 __SAVELOCR3:
000b8c 932a      	ST   -Y,R18
                 __SAVELOCR2:
000b8d 931a      	ST   -Y,R17
000b8e 930a      	ST   -Y,R16
000b8f 9508      	RET
                 
                 __LOADLOCR4:
000b90 813b      	LDD  R19,Y+3
                 __LOADLOCR3:
000b91 812a      	LDD  R18,Y+2
                 __LOADLOCR2:
000b92 8119      	LDD  R17,Y+1
000b93 8108      	LD   R16,Y
000b94 9508      	RET
                 
                 ;END OF CODE MARKER
                 __END_OF_CODE:


RESOURCE USE INFORMATION
------------------------

Notice:
The register and instruction counts are symbol table hit counts,
and hence implicitly used resources are not counted, eg, the
'lpm' instruction without operands implicitly uses r0 and z,
none of which are counted.

x,y,z are separate entities in the symbol table and are
counted separately from r26..r31 here.

.dseg memory usage only counts static data declared with .byte

ATmega128 register use summary:
r0 :  40 r1 :  21 r2 :   4 r3 :   0 r4 :  13 r5 :   9 r6 :  25 r7 :   7 
r8 :  18 r9 :   8 r10:   4 r11:   3 r12:   4 r13:   3 r14:   0 r15:   2 
r16:  73 r17:  69 r18:  18 r19:  16 r20:   8 r21:  44 r22:  40 r23:  37 
r24:  18 r25:  25 r26: 266 r27: 109 r28:   9 r29:   1 r30: 820 r31: 352 
x  :  26 y  : 333 z  :  29 
Registers used: 33 out of 35 (94.3%)

ATmega128 instruction use summary:
adc   :  48 add   :  44 adiw  :  28 and   :  14 andi  :   6 asr   :   5 
bclr  :   0 bld   :   4 brbc  :   0 brbs  :   0 brcc  :   2 brcs  :   0 
break :   0 breq  :  31 brge  :  10 brhc  :   0 brhs  :   0 brid  :   0 
brie  :   0 brlo  :  13 brlt  :   1 brmi  :   4 brne  :  80 brpl  :   4 
brsh  :  10 brtc  :   2 brts  :   1 brvc  :   1 brvs  :   2 bset  :   0 
bst   :   0 call  : 216 cbi   :   4 cbr   :   0 clc   :   0 clh   :   0 
cli   :   2 cln   :   0 clr   :  59 cls   :   0 clt   :   4 clv   :   0 
clz   :   0 com   :   9 cp    :  15 cpc   :  30 cpi   :  69 cpse  :   0 
dec   :   8 des   :   0 elpm  :   0 eor   :   6 fmul  :   0 fmuls :   0 
fmulsu:   0 icall :   4 ijmp  :   0 in    :  14 inc   :   1 jmp   :  64 
ld    :  61 ldd   : 118 ldi   : 382 lds   :  88 lpm   :   7 lsl   :  34 
lsr   :   4 mov   :  24 movw  :  78 mul   :   9 muls  :   0 mulsu :   0 
neg   :   4 nop   :   0 or    :   5 ori   :   3 out   :  52 pop   :  26 
push  :  25 rcall :  35 ret   :  82 reti  :   2 rjmp  :  96 rol   :  38 
ror   :  15 sbc   :   2 sbci  :  35 sbi   :   7 sbic  :   9 sbis  :   1 
sbiw  :  50 sbr   :   1 sbrc  :   3 sbrs  :   2 sec   :   1 seh   :   0 
sei   :   2 sen   :   0 ser   :   9 ses   :   0 set   :   6 sev   :   0 
sez   :   0 sleep :   0 spm   :   0 st    : 192 std   :  10 sts   :  91 
sub   :   2 subi  :  48 swap  :   0 tst   :  11 wdr   :   0 
Instructions used: 76 out of 113 (67.3%)

ATmega128 memory use summary [bytes]:
Segment   Begin    End      Code   Data   Used    Size   Use%
---------------------------------------------------------------
[.cseg] 0x000000 0x00172a   5888     42   5930  131072   4.5%
[.dseg] 0x000100 0x00066d      0    365    365    4096   8.9%
[.eseg] 0x000000 0x000000      0      0      0    4096   0.0%

Assembly complete, 0 errors, 7 warnings
